ARM GAS  C:\Users\rcaravac\AppData\Local\Temp\ccyZRw1i.s 			page 1


   1              		.syntax unified
   2              		.cpu cortex-m3
   3              		.fpu softvfp
   4              		.eabi_attribute 20, 1
   5              		.eabi_attribute 21, 1
   6              		.eabi_attribute 23, 3
   7              		.eabi_attribute 24, 1
   8              		.eabi_attribute 25, 1
   9              		.eabi_attribute 26, 1
  10              		.eabi_attribute 30, 6
  11              		.eabi_attribute 34, 1
  12              		.eabi_attribute 18, 4
  13              		.thumb
  14              		.syntax unified
  15              		.file	"main.c"
  16              		.text
  17              	.Ltext0:
  18              		.cfi_sections	.debug_frame
  19              		.global	keyCodes
  20              		.data
  21              		.align	2
  22              		.type	keyCodes, %object
  23              		.size	keyCodes, 17
  24              	keyCodes:
  25 0000 31323341 		.ascii	"123A456B789C*0#D\000"
  25      34353642 
  25      37383943 
  25      2A302344 
  25      00
  26              		.global	rowDiv
  27 0011 000000   		.align	2
  28              		.type	rowDiv, %object
  29              		.size	rowDiv, 4
  30              	rowDiv:
  31 0014 D6       		.byte	-42
  32 0015 C2       		.byte	-62
  33 0016 AF       		.byte	-81
  34 0017 9E       		.byte	-98
  35              		.global	colDiv
  36              		.align	2
  37              		.type	colDiv, %object
  38              		.size	colDiv, 4
  39              	colDiv:
  40 0018 C6       		.byte	-58
  41 0019 B3       		.byte	-77
  42 001a A1       		.byte	-95
  43 001b 92       		.byte	-110
  44              		.comm	ContinuouslySendData,1,1
  45              		.comm	SendSingleByte,1,1
  46              		.comm	SendEmulatedData,1,1
  47              		.comm	TransmitBuffer,16,4
  48              		.comm	EmulatedData,1,1
  49              		.comm	output,1,1
  50              		.comm	Buffer_sample_to_transmit,2000,4
  51              		.global	i
  52              		.bss
  53              		.align	2
ARM GAS  C:\Users\rcaravac\AppData\Local\Temp\ccyZRw1i.s 			page 2


  54              		.type	i, %object
  55              		.size	i, 4
  56              	i:
  57 0000 00000000 		.space	4
  58              		.global	sample_counter
  59              		.align	2
  60              		.type	sample_counter, %object
  61              		.size	sample_counter, 4
  62              	sample_counter:
  63 0004 00000000 		.space	4
  64              		.comm	counter_char,10,4
  65              		.section	.rodata
  66              		.align	2
  67              	.LC0:
  68 0000 44696769 		.ascii	"Digite el numero: \012\000"
  68      74652065 
  68      6C206E75 
  68      6D65726F 
  68      3A200A00 
  69              		.section	.text.main,"ax",%progbits
  70              		.align	2
  71              		.global	main
  72              		.thumb
  73              		.thumb_func
  74              		.type	main, %function
  75              	main:
  76              	.LFB64:
  77              		.file 1 "main.c"
   1:main.c        **** 
   2:main.c        **** #include <project.h>
   3:main.c        **** #include <stdio.h>
   4:main.c        **** #include <device.h>
   5:main.c        **** 
   6:main.c        **** #define TONE_DURATION_MS 80 /* Duration of tone in mSec */
   7:main.c        **** #define TONE_SPACE_MS 50 /* Duration of space between tones in mSec */
   8:main.c        **** #define TONE_PAUSE_MS 100 /* Pause caused by invalid code */
   9:main.c        **** /* Function prototypes */
  10:main.c        **** void DialNumber( char * number );
  11:main.c        **** void PlayTones( char key );
  12:main.c        **** int8 KeyIndex(char * keyString, char key);
  13:main.c        **** char keyCodes[] = "123A456B789C*0#D"; /* Valid character array */
  14:main.c        **** /* The tables below store the dividers loaded into */
  15:main.c        **** /* the counter period register to generate the row */
  16:main.c        **** /* and column tones. */
  17:main.c        **** /* Row Tones (Hz) 697 770 852 941 */
  18:main.c        **** uint8 rowDiv[] = {214, 194, 175, 158};
  19:main.c        **** /* Col Tones (Hz) 1209 1336 1477 1633 */
  20:main.c        **** uint8 colDiv[] = { 198, 179, 161, 146};
  21:main.c        **** 
  22:main.c        **** /******************************************************************/
  23:main.c        **** #define FALSE  0
  24:main.c        **** #define TRUE   1
  25:main.c        **** #define TRANSMIT_BUFFER_SIZE  16
  26:main.c        **** #define COUNT_OF_SAMPLES  2000
  27:main.c        **** 
  28:main.c        **** /* DMA Defines */
  29:main.c        **** #define REQUEST_PER_BURST        (1u)
ARM GAS  C:\Users\rcaravac\AppData\Local\Temp\ccyZRw1i.s 			page 3


  30:main.c        **** #define BYTES_PER_BURST          (1u)
  31:main.c        **** #define UPPER_SRC_ADDRESS        CYDEV_PERIPH_BASE
  32:main.c        **** #define UPPER_DEST_ADDRESS       CYDEV_PERIPH_BASE
  33:main.c        **** 
  34:main.c        ****     /* Flags used to store transmit data commands */
  35:main.c        ****     uint8 ContinuouslySendData;
  36:main.c        ****     uint8 SendSingleByte;
  37:main.c        ****     uint8 SendEmulatedData;
  38:main.c        ****     /* Transmit Buffer */
  39:main.c        ****     char TransmitBuffer[TRANSMIT_BUFFER_SIZE];
  40:main.c        ****     /* Variable used to send emulated data */
  41:main.c        ****     uint8 EmulatedData;
  42:main.c        ****     uint8 output;
  43:main.c        ****     
  44:main.c        ****     uint8 Buffer_sample_to_transmit[COUNT_OF_SAMPLES];
  45:main.c        ****     int i = 0;
  46:main.c        ****     unsigned int sample_counter = 0;
  47:main.c        ****     
  48:main.c        ****     char counter_char[10];
  49:main.c        **** 
  50:main.c        **** 
  51:main.c        **** 
  52:main.c        **** int main()
  53:main.c        **** {
  78              		.loc 1 53 0
  79              		.cfi_startproc
  80              		@ args = 0, pretend = 0, frame = 8
  81              		@ frame_needed = 1, uses_anonymous_args = 0
  82 0000 80B5     		push	{r7, lr}
  83              		.cfi_def_cfa_offset 8
  84              		.cfi_offset 7, -8
  85              		.cfi_offset 14, -4
  86 0002 82B0     		sub	sp, sp, #8
  87              		.cfi_def_cfa_offset 16
  88 0004 00AF     		add	r7, sp, #0
  89              		.cfi_def_cfa_register 7
  54:main.c        ****  /* Initialize all components */
  55:main.c        ****  ToneClock_Stop();
  90              		.loc 1 55 0
  91 0006 FFF7FEFF 		bl	ToneClock_Stop
  56:main.c        ****  Row_Divider_Start();
  92              		.loc 1 56 0
  93 000a FFF7FEFF 		bl	Row_Divider_Start
  57:main.c        ****  Col_Divider_Start();
  94              		.loc 1 57 0
  95 000e FFF7FEFF 		bl	Col_Divider_Start
  58:main.c        ****  Row_Tone_Start();
  96              		.loc 1 58 0
  97 0012 FFF7FEFF 		bl	Row_Tone_Start
  59:main.c        ****  Col_Tone_Start();
  98              		.loc 1 59 0
  99 0016 FFF7FEFF 		bl	Col_Tone_Start
  60:main.c        ****  DTMF_Buffer_Start();
 100              		.loc 1 60 0
 101 001a FFF7FEFF 		bl	DTMF_Buffer_Start
  61:main.c        **** 
  62:main.c        **** /* Start all components used on schematic */
ARM GAS  C:\Users\rcaravac\AppData\Local\Temp\ccyZRw1i.s 			page 4


  63:main.c        **** 
  64:main.c        ****   UART_1_Start();
 102              		.loc 1 64 0
 103 001e FFF7FEFF 		bl	UART_1_Start
  65:main.c        **** 
  66:main.c        ****   char Ch;
  67:main.c        **** 
  68:main.c        ****   UART_1_PutString("Digite el numero: \n");
 104              		.loc 1 68 0
 105 0022 0848     		ldr	r0, .L3
 106 0024 FFF7FEFF 		bl	UART_1_PutString
 107              	.L2:
 108              	.LBB2:
  69:main.c        **** 
  70:main.c        **** /*******************************************************************************
  71:main.c        **** * Function Name: DMA_Config
  72:main.c        **** ********************************************************************************
  73:main.c        **** *
  74:main.c        **** * Summary:
  75:main.c        **** *  Initializes and sets up DMA for use (generated by DMA Wizard)
  76:main.c        **** *
  77:main.c        **** * Parameters:
  78:main.c        **** *  None.
  79:main.c        **** *
  80:main.c        **** * Return:
  81:main.c        **** *  None.
  82:main.c        **** *
  83:main.c        **** *******************************************************************************/
  84:main.c        **** 
  85:main.c        **** 
  86:main.c        **** for(;;)
  87:main.c        ****     {
  88:main.c        ****         /* Non-blocking call to get the latest data recieved  */
  89:main.c        ****         Ch = (char)UART_1_GetChar();
 109              		.loc 1 89 0 discriminator 1
 110 0028 FFF7FEFF 		bl	UART_1_GetChar
 111 002c 0346     		mov	r3, r0
 112 002e FB70     		strb	r3, [r7, #3]
  90:main.c        ****         
  91:main.c        ****         char * ch_string = &Ch;
 113              		.loc 1 91 0 discriminator 1
 114 0030 FB1C     		adds	r3, r7, #3
 115 0032 7B60     		str	r3, [r7, #4]
  92:main.c        ****         UART_1_PutString(ch_string);
 116              		.loc 1 92 0 discriminator 1
 117 0034 7868     		ldr	r0, [r7, #4]
 118 0036 FFF7FEFF 		bl	UART_1_PutString
  93:main.c        ****         
  94:main.c        ****         /* Set flags based on UART command */
  95:main.c        ****        DialNumber(ch_string);
 119              		.loc 1 95 0 discriminator 1
 120 003a 7868     		ldr	r0, [r7, #4]
 121 003c FFF7FEFF 		bl	DialNumber
 122              	.LBE2:
  96:main.c        ****         
  97:main.c        ****     }
 123              		.loc 1 97 0 discriminator 1
ARM GAS  C:\Users\rcaravac\AppData\Local\Temp\ccyZRw1i.s 			page 5


 124 0040 F2E7     		b	.L2
 125              	.L4:
 126 0042 00BF     		.align	2
 127              	.L3:
 128 0044 00000000 		.word	.LC0
 129              		.cfi_endproc
 130              	.LFE64:
 131              		.size	main, .-main
 132              		.section	.text.DialNumber,"ax",%progbits
 133              		.align	2
 134              		.global	DialNumber
 135              		.thumb
 136              		.thumb_func
 137              		.type	DialNumber, %function
 138              	DialNumber:
 139              	.LFB65:
  98:main.c        **** 
  99:main.c        **** return 0;
 100:main.c        **** }
 101:main.c        **** 
 102:main.c        **** /*******************************************************************************
 103:main.c        **** * Function Name: DialNumber( char * number )
 104:main.c        **** ********************************************************************************
 105:main.c        **** *
 106:main.c        **** * Summary:
 107:main.c        **** * This function dials the number passed to it in a character string. After
 108:main.c        **** * the number has been dialed the funtions returns.
 109:main.c        **** *
 110:main.c        **** * Parameters:
 111:main.c        **** * char * number: Pointer to phone number string.
 112:main.c        **** *
 113:main.c        **** * Return:
 114:main.c        **** * void
 115:main.c        **** *
 116:main.c        **** *******************************************************************************/
 117:main.c        **** void DialNumber( char * number )
 118:main.c        **** {
 140              		.loc 1 118 0
 141              		.cfi_startproc
 142              		@ args = 0, pretend = 0, frame = 16
 143              		@ frame_needed = 1, uses_anonymous_args = 0
 144 0000 80B5     		push	{r7, lr}
 145              		.cfi_def_cfa_offset 8
 146              		.cfi_offset 7, -8
 147              		.cfi_offset 14, -4
 148 0002 84B0     		sub	sp, sp, #16
 149              		.cfi_def_cfa_offset 24
 150 0004 00AF     		add	r7, sp, #0
 151              		.cfi_def_cfa_register 7
 152 0006 7860     		str	r0, [r7, #4]
 119:main.c        ****  uint8 c = 0;
 153              		.loc 1 119 0
 154 0008 0023     		movs	r3, #0
 155 000a FB73     		strb	r3, [r7, #15]
 120:main.c        ****  while( number[c] != 0 ) /* Step through the dial string */
 156              		.loc 1 120 0
 157 000c 0CE0     		b	.L6
ARM GAS  C:\Users\rcaravac\AppData\Local\Temp\ccyZRw1i.s 			page 6


 158              	.L7:
 121:main.c        ****  {
 122:main.c        ****  PlayTones( number[c] ); /* Play tone for each digit */
 159              		.loc 1 122 0
 160 000e FB7B     		ldrb	r3, [r7, #15]	@ zero_extendqisi2
 161 0010 7A68     		ldr	r2, [r7, #4]
 162 0012 1344     		add	r3, r3, r2
 163 0014 1B78     		ldrb	r3, [r3]	@ zero_extendqisi2
 164 0016 1846     		mov	r0, r3
 165 0018 FFF7FEFF 		bl	PlayTones
 123:main.c        ****  CyDelay(TONE_SPACE_MS); /* Wait minimum space between tones */
 166              		.loc 1 123 0
 167 001c 3220     		movs	r0, #50
 168 001e FFF7FEFF 		bl	CyDelay
 124:main.c        **** c++;
 169              		.loc 1 124 0
 170 0022 FB7B     		ldrb	r3, [r7, #15]	@ zero_extendqisi2
 171 0024 0133     		adds	r3, r3, #1
 172 0026 FB73     		strb	r3, [r7, #15]
 173              	.L6:
 120:main.c        ****  {
 174              		.loc 1 120 0
 175 0028 FB7B     		ldrb	r3, [r7, #15]	@ zero_extendqisi2
 176 002a 7A68     		ldr	r2, [r7, #4]
 177 002c 1344     		add	r3, r3, r2
 178 002e 1B78     		ldrb	r3, [r3]	@ zero_extendqisi2
 179 0030 002B     		cmp	r3, #0
 180 0032 ECD1     		bne	.L7
 125:main.c        ****  }
 126:main.c        **** }
 181              		.loc 1 126 0
 182 0034 00BF     		nop
 183 0036 1037     		adds	r7, r7, #16
 184              		.cfi_def_cfa_offset 8
 185 0038 BD46     		mov	sp, r7
 186              		.cfi_def_cfa_register 13
 187              		@ sp needed
 188 003a 80BD     		pop	{r7, pc}
 189              		.cfi_endproc
 190              	.LFE65:
 191              		.size	DialNumber, .-DialNumber
 192              		.section	.text.PlayTones,"ax",%progbits
 193              		.align	2
 194              		.global	PlayTones
 195              		.thumb
 196              		.thumb_func
 197              		.type	PlayTones, %function
 198              	PlayTones:
 199              	.LFB66:
 127:main.c        **** 
 128:main.c        **** /*******************************************************************************
 129:main.c        **** * Function Name: PlayTones( )
 130:main.c        **** ********************************************************************************
 131:main.c        **** *
 132:main.c        **** * Summary:
 133:main.c        **** * Generates the two tones required to dial the given key code. The valid
 134:main.c        **** * dial characters are "1 2 3 4 5 6 7 8 9 0 A B C D * #". Any invalid
ARM GAS  C:\Users\rcaravac\AppData\Local\Temp\ccyZRw1i.s 			page 7


 135:main.c        **** * character will generate a pause.
 136:main.c        **** *
 137:main.c        **** * Parameters:
 138:main.c        **** * char key: Keypad character to be dialed.
 139:main.c        **** *
 140:main.c        **** * Return:
 141:main.c        **** * void
 142:main.c        **** *
 143:main.c        **** *******************************************************************************/
 144:main.c        **** void PlayTones( char key )
 145:main.c        **** {
 200              		.loc 1 145 0
 201              		.cfi_startproc
 202              		@ args = 0, pretend = 0, frame = 16
 203              		@ frame_needed = 1, uses_anonymous_args = 0
 204 0000 80B5     		push	{r7, lr}
 205              		.cfi_def_cfa_offset 8
 206              		.cfi_offset 7, -8
 207              		.cfi_offset 14, -4
 208 0002 84B0     		sub	sp, sp, #16
 209              		.cfi_def_cfa_offset 24
 210 0004 00AF     		add	r7, sp, #0
 211              		.cfi_def_cfa_register 7
 212 0006 0346     		mov	r3, r0
 213 0008 FB71     		strb	r3, [r7, #7]
 146:main.c        ****  int8 idx;
 147:main.c        ****  uint8 row_div, col_div;
 148:main.c        **** 
 149:main.c        ****  idx = KeyIndex(keyCodes, key); /* Convert key to "keyCodes" array index */
 214              		.loc 1 149 0
 215 000a FB79     		ldrb	r3, [r7, #7]	@ zero_extendqisi2
 216 000c 1946     		mov	r1, r3
 217 000e 1848     		ldr	r0, .L12
 218 0010 FFF7FEFF 		bl	KeyIndex
 219 0014 0346     		mov	r3, r0
 220 0016 FB73     		strb	r3, [r7, #15]
 150:main.c        ****  if (idx >= 0 ) /* Is key valid */
 221              		.loc 1 150 0
 222 0018 97F90F30 		ldrsb	r3, [r7, #15]
 223 001c 002B     		cmp	r3, #0
 224 001e 1FDB     		blt	.L9
 151:main.c        ****  { /* Valid Key */
 152:main.c        ****  col_div = colDiv[(uint8)(idx & 0x03)]; /* Get divider for column tone */
 225              		.loc 1 152 0
 226 0020 FB7B     		ldrb	r3, [r7, #15]	@ zero_extendqisi2
 227 0022 03F00303 		and	r3, r3, #3
 228 0026 134A     		ldr	r2, .L12+4
 229 0028 D35C     		ldrb	r3, [r2, r3]
 230 002a BB73     		strb	r3, [r7, #14]
 153:main.c        **** row_div = rowDiv[(uint8)((idx >> 2)& 0x03)];/* Get divider for row tone */
 231              		.loc 1 153 0
 232 002c 97F90F30 		ldrsb	r3, [r7, #15]
 233 0030 9B10     		asrs	r3, r3, #2
 234 0032 5BB2     		sxtb	r3, r3
 235 0034 DBB2     		uxtb	r3, r3
 236 0036 03F00303 		and	r3, r3, #3
 237 003a 0F4A     		ldr	r2, .L12+8
ARM GAS  C:\Users\rcaravac\AppData\Local\Temp\ccyZRw1i.s 			page 8


 238 003c D35C     		ldrb	r3, [r2, r3]
 239 003e 7B73     		strb	r3, [r7, #13]
 154:main.c        **** Row_Divider_WritePeriod(row_div); /* Set both dividers */
 240              		.loc 1 154 0
 241 0040 7B7B     		ldrb	r3, [r7, #13]	@ zero_extendqisi2
 242 0042 1846     		mov	r0, r3
 243 0044 FFF7FEFF 		bl	Row_Divider_WritePeriod
 155:main.c        ****  Col_Divider_WritePeriod(col_div);
 244              		.loc 1 155 0
 245 0048 BB7B     		ldrb	r3, [r7, #14]	@ zero_extendqisi2
 246 004a 1846     		mov	r0, r3
 247 004c FFF7FEFF 		bl	Col_Divider_WritePeriod
 156:main.c        **** 
 157:main.c        ****  ToneClock_Start(); /* Turn on clock */
 248              		.loc 1 157 0
 249 0050 FFF7FEFF 		bl	ToneClock_Start
 158:main.c        ****  CyDelay(TONE_DURATION_MS); /* Wait for the tone duration */
 250              		.loc 1 158 0
 251 0054 5020     		movs	r0, #80
 252 0056 FFF7FEFF 		bl	CyDelay
 159:main.c        ****  ToneClock_Stop(); /* Turn off clock */
 253              		.loc 1 159 0
 254 005a FFF7FEFF 		bl	ToneClock_Stop
 160:main.c        ****  }
 161:main.c        ****  else /* Invalid key, just pause for set period of time. */
 162:main.c        ****  {
 163:main.c        ****  CyDelay(TONE_PAUSE_MS);
 164:main.c        ****  }
 165:main.c        **** }
 255              		.loc 1 165 0
 256 005e 02E0     		b	.L11
 257              	.L9:
 163:main.c        ****  }
 258              		.loc 1 163 0
 259 0060 6420     		movs	r0, #100
 260 0062 FFF7FEFF 		bl	CyDelay
 261              	.L11:
 262              		.loc 1 165 0
 263 0066 00BF     		nop
 264 0068 1037     		adds	r7, r7, #16
 265              		.cfi_def_cfa_offset 8
 266 006a BD46     		mov	sp, r7
 267              		.cfi_def_cfa_register 13
 268              		@ sp needed
 269 006c 80BD     		pop	{r7, pc}
 270              	.L13:
 271 006e 00BF     		.align	2
 272              	.L12:
 273 0070 00000000 		.word	keyCodes
 274 0074 00000000 		.word	colDiv
 275 0078 00000000 		.word	rowDiv
 276              		.cfi_endproc
 277              	.LFE66:
 278              		.size	PlayTones, .-PlayTones
 279              		.section	.text.KeyIndex,"ax",%progbits
 280              		.align	2
 281              		.global	KeyIndex
ARM GAS  C:\Users\rcaravac\AppData\Local\Temp\ccyZRw1i.s 			page 9


 282              		.thumb
 283              		.thumb_func
 284              		.type	KeyIndex, %function
 285              	KeyIndex:
 286              	.LFB67:
 166:main.c        **** /*******************************************************************************
 167:main.c        **** * Function Name: KeyIndex( )
 168:main.c        **** ********************************************************************************
 169:main.c        **** *
 170:main.c        **** * Summary:
 171:main.c        **** * This function finds the location of a character in a string and returns
 172:main.c        **** * the index. If the character is not found a -1 is returned.
 173:main.c        **** *
 174:main.c        **** * Parameters:
 175:main.c        **** * char * keyString: String to search through. This strings should be null
 176:main.c        **** * terminated and less than 255 characters in lenth.
 177:main.c        **** * char key: Character to find in "String".
 178:main.c        **** *
 179:main.c        **** * Return:
 180:main.c        **** * int8: Index of "key" in "keyString". If not found, return -1.
 181:main.c        **** *
 182:main.c        **** *******************************************************************************/
 183:main.c        **** int8 KeyIndex(char * keyString, char key)
 184:main.c        **** {
 287              		.loc 1 184 0
 288              		.cfi_startproc
 289              		@ args = 0, pretend = 0, frame = 16
 290              		@ frame_needed = 1, uses_anonymous_args = 0
 291              		@ link register save eliminated.
 292 0000 80B4     		push	{r7}
 293              		.cfi_def_cfa_offset 4
 294              		.cfi_offset 7, -4
 295 0002 85B0     		sub	sp, sp, #20
 296              		.cfi_def_cfa_offset 24
 297 0004 00AF     		add	r7, sp, #0
 298              		.cfi_def_cfa_register 7
 299 0006 7860     		str	r0, [r7, #4]
 300 0008 0B46     		mov	r3, r1
 301 000a FB70     		strb	r3, [r7, #3]
 185:main.c        ****  int8 i; /* String index */
 186:main.c        ****  int8 charLoc = -1; /* Location of character in string */
 302              		.loc 1 186 0
 303 000c FF23     		movs	r3, #255
 304 000e BB73     		strb	r3, [r7, #14]
 187:main.c        **** 
 188:main.c        ****  /* Search through string for character match */
 189:main.c        ****  for(i=0; (keyString[i] != 0); i++)
 305              		.loc 1 189 0
 306 0010 0023     		movs	r3, #0
 307 0012 FB73     		strb	r3, [r7, #15]
 308 0014 10E0     		b	.L15
 309              	.L18:
 190:main.c        ****  {
 191:main.c        ****  /* If character is found return index in string */
 192:main.c        ****  if (key == keyString[i])
 310              		.loc 1 192 0
 311 0016 97F90F30 		ldrsb	r3, [r7, #15]
ARM GAS  C:\Users\rcaravac\AppData\Local\Temp\ccyZRw1i.s 			page 10


 312 001a 7A68     		ldr	r2, [r7, #4]
 313 001c 1344     		add	r3, r3, r2
 314 001e 1B78     		ldrb	r3, [r3]	@ zero_extendqisi2
 315 0020 FA78     		ldrb	r2, [r7, #3]	@ zero_extendqisi2
 316 0022 9A42     		cmp	r2, r3
 317 0024 02D1     		bne	.L16
 193:main.c        **** {
 194:main.c        ****  charLoc = i;
 318              		.loc 1 194 0
 319 0026 FB7B     		ldrb	r3, [r7, #15]
 320 0028 BB73     		strb	r3, [r7, #14]
 195:main.c        **** break;
 321              		.loc 1 195 0
 322 002a 0CE0     		b	.L17
 323              	.L16:
 189:main.c        ****  {
 324              		.loc 1 189 0 discriminator 2
 325 002c 97F90F30 		ldrsb	r3, [r7, #15]
 326 0030 DBB2     		uxtb	r3, r3
 327 0032 0133     		adds	r3, r3, #1
 328 0034 DBB2     		uxtb	r3, r3
 329 0036 FB73     		strb	r3, [r7, #15]
 330              	.L15:
 189:main.c        ****  {
 331              		.loc 1 189 0 is_stmt 0 discriminator 1
 332 0038 97F90F30 		ldrsb	r3, [r7, #15]
 333 003c 7A68     		ldr	r2, [r7, #4]
 334 003e 1344     		add	r3, r3, r2
 335 0040 1B78     		ldrb	r3, [r3]	@ zero_extendqisi2
 336 0042 002B     		cmp	r3, #0
 337 0044 E7D1     		bne	.L18
 338              	.L17:
 196:main.c        **** }
 197:main.c        ****  }
 198:main.c        ****  return charLoc;
 339              		.loc 1 198 0 is_stmt 1
 340 0046 97F90E30 		ldrsb	r3, [r7, #14]
 199:main.c        **** }
 341              		.loc 1 199 0
 342 004a 1846     		mov	r0, r3
 343 004c 1437     		adds	r7, r7, #20
 344              		.cfi_def_cfa_offset 4
 345 004e BD46     		mov	sp, r7
 346              		.cfi_def_cfa_register 13
 347              		@ sp needed
 348 0050 80BC     		pop	{r7}
 349              		.cfi_restore 7
 350              		.cfi_def_cfa_offset 0
 351 0052 7047     		bx	lr
 352              		.cfi_endproc
 353              	.LFE67:
 354              		.size	KeyIndex, .-KeyIndex
 355              		.text
 356              	.Letext0:
 357              		.file 2 "c:\\program files (x86)\\cypress\\psoc creator\\4.2\\psoc creator\\import\\gnu\\arm\\5.4.
 358              		.file 3 "c:\\program files (x86)\\cypress\\psoc creator\\4.2\\psoc creator\\import\\gnu\\arm\\5.4.
 359              		.file 4 "Generated_Source\\PSoC5/cytypes.h"
ARM GAS  C:\Users\rcaravac\AppData\Local\Temp\ccyZRw1i.s 			page 11


 360              		.file 5 "Generated_Source\\PSoC5/core_cm3.h"