ARM GAS  C:\Users\rcaravac\AppData\Local\Temp\ccauAhrg.s 			page 1


   1              		.syntax unified
   2              		.cpu cortex-m3
   3              		.fpu softvfp
   4              		.eabi_attribute 20, 1
   5              		.eabi_attribute 21, 1
   6              		.eabi_attribute 23, 3
   7              		.eabi_attribute 24, 1
   8              		.eabi_attribute 25, 1
   9              		.eabi_attribute 26, 1
  10              		.eabi_attribute 30, 6
  11              		.eabi_attribute 34, 1
  12              		.eabi_attribute 18, 4
  13              		.thumb
  14              		.syntax unified
  15              		.file	"ADC_DelSig.c"
  16              		.text
  17              	.Ltext0:
  18              		.cfi_sections	.debug_frame
  19              		.global	ADC_DelSig_convDone
  20              		.bss
  21              		.type	ADC_DelSig_convDone, %object
  22              		.size	ADC_DelSig_convDone, 1
  23              	ADC_DelSig_convDone:
  24 0000 00       		.space	1
  25              		.global	ADC_DelSig_stopConversion
  26              		.type	ADC_DelSig_stopConversion, %object
  27              		.size	ADC_DelSig_stopConversion, 1
  28              	ADC_DelSig_stopConversion:
  29 0001 00       		.space	1
  30              		.global	ADC_DelSig_initVar
  31              		.type	ADC_DelSig_initVar, %object
  32              		.size	ADC_DelSig_initVar, 1
  33              	ADC_DelSig_initVar:
  34 0002 00       		.space	1
  35              		.global	ADC_DelSig_started
  36              		.type	ADC_DelSig_started, %object
  37              		.size	ADC_DelSig_started, 1
  38              	ADC_DelSig_started:
  39 0003 00       		.space	1
  40              		.global	ADC_DelSig_Config
  41              		.data
  42              		.type	ADC_DelSig_Config, %object
  43              		.size	ADC_DelSig_Config, 1
  44              	ADC_DelSig_Config:
  45 0000 01       		.byte	1
  46              		.global	ADC_DelSig_Offset
  47              		.bss
  48              		.align	2
  49              		.type	ADC_DelSig_Offset, %object
  50              		.size	ADC_DelSig_Offset, 4
  51              	ADC_DelSig_Offset:
  52 0004 00000000 		.space	4
  53              		.comm	ADC_DelSig_CountsPerVolt,4,4
  54              		.align	2
  55              	ADC_DelSig_gcor:
  56 0008 00000000 		.space	4
  57              		.section	.text.ADC_DelSig_Init,"ax",%progbits
ARM GAS  C:\Users\rcaravac\AppData\Local\Temp\ccauAhrg.s 			page 2


  58              		.align	2
  59              		.global	ADC_DelSig_Init
  60              		.thumb
  61              		.thumb_func
  62              		.type	ADC_DelSig_Init, %function
  63              	ADC_DelSig_Init:
  64              	.LFB0:
  65              		.file 1 "Generated_Source\\PSoC5\\ADC_DelSig.c"
   1:Generated_Source\PSoC5/ADC_DelSig.c **** /*******************************************************************************
   2:Generated_Source\PSoC5/ADC_DelSig.c **** * File Name: ADC_DelSig.c
   3:Generated_Source\PSoC5/ADC_DelSig.c **** * Version 3.30
   4:Generated_Source\PSoC5/ADC_DelSig.c **** *
   5:Generated_Source\PSoC5/ADC_DelSig.c **** * Description:
   6:Generated_Source\PSoC5/ADC_DelSig.c **** *  This file provides the source code to the API for the Delta-Sigma ADC
   7:Generated_Source\PSoC5/ADC_DelSig.c **** *  Component.
   8:Generated_Source\PSoC5/ADC_DelSig.c **** *
   9:Generated_Source\PSoC5/ADC_DelSig.c **** * Note:
  10:Generated_Source\PSoC5/ADC_DelSig.c **** *
  11:Generated_Source\PSoC5/ADC_DelSig.c **** ********************************************************************************
  12:Generated_Source\PSoC5/ADC_DelSig.c **** * Copyright 2008-2017, Cypress Semiconductor Corporation.  All rights reserved.
  13:Generated_Source\PSoC5/ADC_DelSig.c **** * You may use this file only in accordance with the license, terms, conditions,
  14:Generated_Source\PSoC5/ADC_DelSig.c **** * disclaimers, and limitations in the end user license agreement accompanying
  15:Generated_Source\PSoC5/ADC_DelSig.c **** * the software package with which this file was provided.
  16:Generated_Source\PSoC5/ADC_DelSig.c **** *******************************************************************************/
  17:Generated_Source\PSoC5/ADC_DelSig.c **** 
  18:Generated_Source\PSoC5/ADC_DelSig.c **** #include "ADC_DelSig.h"
  19:Generated_Source\PSoC5/ADC_DelSig.c **** 
  20:Generated_Source\PSoC5/ADC_DelSig.c **** #if(ADC_DelSig_DEFAULT_INTERNAL_CLK)
  21:Generated_Source\PSoC5/ADC_DelSig.c ****     #include "ADC_DelSig_theACLK.h"
  22:Generated_Source\PSoC5/ADC_DelSig.c **** #endif /* ADC_DelSig_DEFAULT_INTERNAL_CLK */
  23:Generated_Source\PSoC5/ADC_DelSig.c **** 
  24:Generated_Source\PSoC5/ADC_DelSig.c **** #include "ADC_DelSig_Ext_CP_Clk.h"
  25:Generated_Source\PSoC5/ADC_DelSig.c **** 
  26:Generated_Source\PSoC5/ADC_DelSig.c **** #if(ADC_DelSig_DEFAULT_INPUT_MODE)
  27:Generated_Source\PSoC5/ADC_DelSig.c ****     #include "ADC_DelSig_AMux.h"
  28:Generated_Source\PSoC5/ADC_DelSig.c **** #endif /* ADC_DelSig_DEFAULT_INPUT_MODE */
  29:Generated_Source\PSoC5/ADC_DelSig.c **** 
  30:Generated_Source\PSoC5/ADC_DelSig.c **** 
  31:Generated_Source\PSoC5/ADC_DelSig.c **** /***************************************
  32:Generated_Source\PSoC5/ADC_DelSig.c **** * Global data allocation
  33:Generated_Source\PSoC5/ADC_DelSig.c **** ***************************************/
  34:Generated_Source\PSoC5/ADC_DelSig.c **** 
  35:Generated_Source\PSoC5/ADC_DelSig.c **** /* Software flag for checking conversion completed or not */
  36:Generated_Source\PSoC5/ADC_DelSig.c **** volatile uint8 ADC_DelSig_convDone = 0u;
  37:Generated_Source\PSoC5/ADC_DelSig.c **** 
  38:Generated_Source\PSoC5/ADC_DelSig.c **** /* Software flag to stop conversion for single sample conversion mode
  39:Generated_Source\PSoC5/ADC_DelSig.c **** *   with resolution above 16 bits 
  40:Generated_Source\PSoC5/ADC_DelSig.c **** */
  41:Generated_Source\PSoC5/ADC_DelSig.c **** volatile uint8 ADC_DelSig_stopConversion = 0u;
  42:Generated_Source\PSoC5/ADC_DelSig.c **** 
  43:Generated_Source\PSoC5/ADC_DelSig.c **** /* To run the initialization block only at the start up */
  44:Generated_Source\PSoC5/ADC_DelSig.c **** uint8 ADC_DelSig_initVar = 0u;
  45:Generated_Source\PSoC5/ADC_DelSig.c **** 
  46:Generated_Source\PSoC5/ADC_DelSig.c **** /* To check whether ADC started or not before switching the configuration */
  47:Generated_Source\PSoC5/ADC_DelSig.c **** volatile uint8 ADC_DelSig_started = 0u;
  48:Generated_Source\PSoC5/ADC_DelSig.c **** 
  49:Generated_Source\PSoC5/ADC_DelSig.c **** /* Flag to hold ADC config number. By default active config is 1. */
ARM GAS  C:\Users\rcaravac\AppData\Local\Temp\ccauAhrg.s 			page 3


  50:Generated_Source\PSoC5/ADC_DelSig.c **** volatile uint8 ADC_DelSig_Config = 1u;
  51:Generated_Source\PSoC5/ADC_DelSig.c **** 
  52:Generated_Source\PSoC5/ADC_DelSig.c **** volatile int32 ADC_DelSig_Offset = 0;
  53:Generated_Source\PSoC5/ADC_DelSig.c **** volatile int32 ADC_DelSig_CountsPerVolt;
  54:Generated_Source\PSoC5/ADC_DelSig.c **** 
  55:Generated_Source\PSoC5/ADC_DelSig.c **** 
  56:Generated_Source\PSoC5/ADC_DelSig.c **** /***************************************
  57:Generated_Source\PSoC5/ADC_DelSig.c **** * Local data allocation
  58:Generated_Source\PSoC5/ADC_DelSig.c **** ***************************************/
  59:Generated_Source\PSoC5/ADC_DelSig.c **** 
  60:Generated_Source\PSoC5/ADC_DelSig.c **** /* The array with precalculated gain compensation coefficients */
  61:Generated_Source\PSoC5/ADC_DelSig.c **** static ADC_DelSig_GCOR_STRUCT ADC_DelSig_gcor[ADC_DelSig_DEFAULT_NUM_CONFIGS];
  62:Generated_Source\PSoC5/ADC_DelSig.c **** 
  63:Generated_Source\PSoC5/ADC_DelSig.c **** 
  64:Generated_Source\PSoC5/ADC_DelSig.c **** 
  65:Generated_Source\PSoC5/ADC_DelSig.c **** /***************************************
  66:Generated_Source\PSoC5/ADC_DelSig.c **** * Forward function references
  67:Generated_Source\PSoC5/ADC_DelSig.c **** ***************************************/
  68:Generated_Source\PSoC5/ADC_DelSig.c **** static void ADC_DelSig_InitConfig(uint8 config) ;
  69:Generated_Source\PSoC5/ADC_DelSig.c **** static void ADC_DelSig_GainCompensation(uint8 inputRange, uint16 idealDecGain, uint16 idealOddDecGa
  70:Generated_Source\PSoC5/ADC_DelSig.c ****                             uint8 resolution, uint8 config) ;
  71:Generated_Source\PSoC5/ADC_DelSig.c **** static void ADC_DelSig_SetDSMRef0Reg(uint8 value) ;
  72:Generated_Source\PSoC5/ADC_DelSig.c **** 
  73:Generated_Source\PSoC5/ADC_DelSig.c **** 
  74:Generated_Source\PSoC5/ADC_DelSig.c **** /******************************************************************************
  75:Generated_Source\PSoC5/ADC_DelSig.c **** * Function Name: ADC_DelSig_Init
  76:Generated_Source\PSoC5/ADC_DelSig.c **** *******************************************************************************
  77:Generated_Source\PSoC5/ADC_DelSig.c **** *
  78:Generated_Source\PSoC5/ADC_DelSig.c **** * Summary:
  79:Generated_Source\PSoC5/ADC_DelSig.c **** *  Initialize component's parameters to the parameters set by user in the
  80:Generated_Source\PSoC5/ADC_DelSig.c **** *  customizer of the component placed onto schematic. Usually called in
  81:Generated_Source\PSoC5/ADC_DelSig.c **** * ADC_DelSig_Start().
  82:Generated_Source\PSoC5/ADC_DelSig.c **** *
  83:Generated_Source\PSoC5/ADC_DelSig.c **** *
  84:Generated_Source\PSoC5/ADC_DelSig.c **** * Parameters:
  85:Generated_Source\PSoC5/ADC_DelSig.c **** *  None
  86:Generated_Source\PSoC5/ADC_DelSig.c **** *
  87:Generated_Source\PSoC5/ADC_DelSig.c **** * Return:
  88:Generated_Source\PSoC5/ADC_DelSig.c **** *  None
  89:Generated_Source\PSoC5/ADC_DelSig.c **** *
  90:Generated_Source\PSoC5/ADC_DelSig.c **** *******************************************************************************/
  91:Generated_Source\PSoC5/ADC_DelSig.c **** void ADC_DelSig_Init(void) 
  92:Generated_Source\PSoC5/ADC_DelSig.c **** {
  66              		.loc 1 92 0
  67              		.cfi_startproc
  68              		@ args = 0, pretend = 0, frame = 0
  69              		@ frame_needed = 1, uses_anonymous_args = 0
  70 0000 80B5     		push	{r7, lr}
  71              		.cfi_def_cfa_offset 8
  72              		.cfi_offset 7, -8
  73              		.cfi_offset 14, -4
  74 0002 82B0     		sub	sp, sp, #8
  75              		.cfi_def_cfa_offset 16
  76 0004 02AF     		add	r7, sp, #8
  77              		.cfi_def_cfa 7, 8
  93:Generated_Source\PSoC5/ADC_DelSig.c **** 
  94:Generated_Source\PSoC5/ADC_DelSig.c ****     ADC_DelSig_Config = 1u;
ARM GAS  C:\Users\rcaravac\AppData\Local\Temp\ccauAhrg.s 			page 4


  78              		.loc 1 94 0
  79 0006 324B     		ldr	r3, .L2
  80 0008 0122     		movs	r2, #1
  81 000a 1A70     		strb	r2, [r3]
  95:Generated_Source\PSoC5/ADC_DelSig.c ****     ADC_DelSig_convDone = 0u;
  82              		.loc 1 95 0
  83 000c 314B     		ldr	r3, .L2+4
  84 000e 0022     		movs	r2, #0
  85 0010 1A70     		strb	r2, [r3]
  96:Generated_Source\PSoC5/ADC_DelSig.c **** 
  97:Generated_Source\PSoC5/ADC_DelSig.c ****     ADC_DelSig_Ext_CP_Clk_SetMode(CYCLK_DUTY);
  86              		.loc 1 97 0
  87 0012 1020     		movs	r0, #16
  88 0014 FFF7FEFF 		bl	ADC_DelSig_Ext_CP_Clk_SetModeRegister
  98:Generated_Source\PSoC5/ADC_DelSig.c **** 
  99:Generated_Source\PSoC5/ADC_DelSig.c ****     /* This is only valid if there is an internal clock */
 100:Generated_Source\PSoC5/ADC_DelSig.c ****     #if(ADC_DelSig_DEFAULT_INTERNAL_CLK)
 101:Generated_Source\PSoC5/ADC_DelSig.c ****         ADC_DelSig_theACLK_SetMode(CYCLK_DUTY);
  89              		.loc 1 101 0
  90 0018 1020     		movs	r0, #16
  91 001a FFF7FEFF 		bl	ADC_DelSig_theACLK_SetModeRegister
 102:Generated_Source\PSoC5/ADC_DelSig.c ****     #endif /* ADC_DelSig_DEFAULT_INTERNAL_CLK */
 103:Generated_Source\PSoC5/ADC_DelSig.c **** 
 104:Generated_Source\PSoC5/ADC_DelSig.c ****     #if(ADC_DelSig_IRQ_REMOVE == 0u)
 105:Generated_Source\PSoC5/ADC_DelSig.c ****         /* Set interrupt priority */
 106:Generated_Source\PSoC5/ADC_DelSig.c ****         CyIntSetPriority(ADC_DelSig_INTC_NUMBER, ADC_DelSig_INTC_PRIOR_NUMBER);
  92              		.loc 1 106 0
  93 001e 0721     		movs	r1, #7
  94 0020 1D20     		movs	r0, #29
  95 0022 FFF7FEFF 		bl	CyIntSetPriority
 107:Generated_Source\PSoC5/ADC_DelSig.c ****     #endif   /* End ADC_DelSig_IRQ_REMOVE */
 108:Generated_Source\PSoC5/ADC_DelSig.c **** 
 109:Generated_Source\PSoC5/ADC_DelSig.c ****     /* Init static registers with common configuration */
 110:Generated_Source\PSoC5/ADC_DelSig.c ****     ADC_DelSig_DSM_DEM0_REG    = ADC_DelSig_CFG1_DSM_DEM0;
  96              		.loc 1 110 0
  97 0026 2C4B     		ldr	r3, .L2+8
  98 0028 0422     		movs	r2, #4
  99 002a 1A70     		strb	r2, [r3]
 111:Generated_Source\PSoC5/ADC_DelSig.c ****     ADC_DelSig_DSM_DEM1_REG    = ADC_DelSig_CFG1_DSM_DEM1;
 100              		.loc 1 111 0
 101 002c 2B4B     		ldr	r3, .L2+12
 102 002e 0022     		movs	r2, #0
 103 0030 1A70     		strb	r2, [r3]
 112:Generated_Source\PSoC5/ADC_DelSig.c ****     ADC_DelSig_DSM_MISC_REG    = ADC_DelSig_CFG1_DSM_MISC;
 104              		.loc 1 112 0
 105 0032 2B4B     		ldr	r3, .L2+16
 106 0034 0022     		movs	r2, #0
 107 0036 1A70     		strb	r2, [r3]
 113:Generated_Source\PSoC5/ADC_DelSig.c ****     ADC_DelSig_DSM_CLK_REG    |= ADC_DelSig_CFG1_DSM_CLK;
 108              		.loc 1 113 0
 109 0038 2A4A     		ldr	r2, .L2+20
 110 003a 2A4B     		ldr	r3, .L2+20
 111 003c 1B78     		ldrb	r3, [r3]
 112 003e DBB2     		uxtb	r3, r3
 113 0040 43F01803 		orr	r3, r3, #24
 114 0044 DBB2     		uxtb	r3, r3
 115 0046 1370     		strb	r3, [r2]
ARM GAS  C:\Users\rcaravac\AppData\Local\Temp\ccauAhrg.s 			page 5


 114:Generated_Source\PSoC5/ADC_DelSig.c ****     ADC_DelSig_DSM_REF1_REG    = ADC_DelSig_CFG1_DSM_REF1;
 116              		.loc 1 114 0
 117 0048 274B     		ldr	r3, .L2+24
 118 004a 0022     		movs	r2, #0
 119 004c 1A70     		strb	r2, [r3]
 115:Generated_Source\PSoC5/ADC_DelSig.c **** 
 116:Generated_Source\PSoC5/ADC_DelSig.c ****     ADC_DelSig_DSM_OUT0_REG    = ADC_DelSig_CFG1_DSM_OUT0;
 120              		.loc 1 116 0
 121 004e 274B     		ldr	r3, .L2+28
 122 0050 0022     		movs	r2, #0
 123 0052 1A70     		strb	r2, [r3]
 117:Generated_Source\PSoC5/ADC_DelSig.c ****     ADC_DelSig_DSM_OUT1_REG    = ADC_DelSig_CFG1_DSM_OUT1;
 124              		.loc 1 117 0
 125 0054 264B     		ldr	r3, .L2+32
 126 0056 0022     		movs	r2, #0
 127 0058 1A70     		strb	r2, [r3]
 118:Generated_Source\PSoC5/ADC_DelSig.c **** 
 119:Generated_Source\PSoC5/ADC_DelSig.c ****     ADC_DelSig_DSM_CR0_REG     = ADC_DelSig_CFG1_DSM_CR0;
 128              		.loc 1 119 0
 129 005a 264B     		ldr	r3, .L2+36
 130 005c 0A22     		movs	r2, #10
 131 005e 1A70     		strb	r2, [r3]
 120:Generated_Source\PSoC5/ADC_DelSig.c ****     ADC_DelSig_DSM_CR1_REG     = ADC_DelSig_CFG1_DSM_CR1;
 132              		.loc 1 120 0
 133 0060 254B     		ldr	r3, .L2+40
 134 0062 0022     		movs	r2, #0
 135 0064 1A70     		strb	r2, [r3]
 121:Generated_Source\PSoC5/ADC_DelSig.c **** #if(ADC_DelSig_MI_ENABLE != 0u) /* Enable Modulator Input */
 122:Generated_Source\PSoC5/ADC_DelSig.c ****     ADC_DelSig_DSM_CR3_REG     |= ADC_DelSig_DSM_MODBIT_EN;
 123:Generated_Source\PSoC5/ADC_DelSig.c **** #else
 124:Generated_Source\PSoC5/ADC_DelSig.c ****     ADC_DelSig_DSM_CR3_REG     = ADC_DelSig_CFG1_DSM_CR3;
 136              		.loc 1 124 0
 137 0066 254B     		ldr	r3, .L2+44
 138 0068 0022     		movs	r2, #0
 139 006a 1A70     		strb	r2, [r3]
 125:Generated_Source\PSoC5/ADC_DelSig.c **** #endif /* ADC_DelSig_MI_ENABLE != 0u*/    
 126:Generated_Source\PSoC5/ADC_DelSig.c ****     ADC_DelSig_DSM_CR8_REG     = ADC_DelSig_CFG1_DSM_CR8;
 140              		.loc 1 126 0
 141 006c 244B     		ldr	r3, .L2+48
 142 006e 1222     		movs	r2, #18
 143 0070 1A70     		strb	r2, [r3]
 127:Generated_Source\PSoC5/ADC_DelSig.c ****     ADC_DelSig_DSM_CR9_REG     = ADC_DelSig_CFG1_DSM_CR9;
 144              		.loc 1 127 0
 145 0072 244B     		ldr	r3, .L2+52
 146 0074 1322     		movs	r2, #19
 147 0076 1A70     		strb	r2, [r3]
 128:Generated_Source\PSoC5/ADC_DelSig.c ****     ADC_DelSig_DSM_CR13_REG    = ADC_DelSig_CFG1_DSM_CR13;
 148              		.loc 1 128 0
 149 0078 234B     		ldr	r3, .L2+56
 150 007a 0022     		movs	r2, #0
 151 007c 1A70     		strb	r2, [r3]
 129:Generated_Source\PSoC5/ADC_DelSig.c **** 
 130:Generated_Source\PSoC5/ADC_DelSig.c ****     ADC_DelSig_DEC_SR_REG      = ADC_DelSig_CFG1_DEC_SR;
 152              		.loc 1 130 0
 153 007e 234B     		ldr	r3, .L2+60
 154 0080 1422     		movs	r2, #20
 155 0082 1A70     		strb	r2, [r3]
ARM GAS  C:\Users\rcaravac\AppData\Local\Temp\ccauAhrg.s 			page 6


 131:Generated_Source\PSoC5/ADC_DelSig.c **** 
 132:Generated_Source\PSoC5/ADC_DelSig.c ****     /* Calculate Gain compensation coefficients for all configurations */
 133:Generated_Source\PSoC5/ADC_DelSig.c ****     ADC_DelSig_GainCompensation(ADC_DelSig_CFG1_INPUT_RANGE,
 156              		.loc 1 133 0
 157 0084 0123     		movs	r3, #1
 158 0086 0093     		str	r3, [sp]
 159 0088 0823     		movs	r3, #8
 160 008a 4FF40042 		mov	r2, #32768
 161 008e 48F6B651 		movw	r1, #36278
 162 0092 0120     		movs	r0, #1
 163 0094 FFF7FEFF 		bl	ADC_DelSig_GainCompensation
 134:Generated_Source\PSoC5/ADC_DelSig.c ****                                       ADC_DelSig_CFG1_IDEAL_DEC_GAIN,
 135:Generated_Source\PSoC5/ADC_DelSig.c ****                                       ADC_DelSig_CFG1_IDEAL_ODDDEC_GAIN,
 136:Generated_Source\PSoC5/ADC_DelSig.c ****                                       ADC_DelSig_CFG1_RESOLUTION,
 137:Generated_Source\PSoC5/ADC_DelSig.c ****                                       ADC_DelSig_CFG1);
 138:Generated_Source\PSoC5/ADC_DelSig.c ****     #if(ADC_DelSig_DEFAULT_NUM_CONFIGS > 1)
 139:Generated_Source\PSoC5/ADC_DelSig.c ****         ADC_DelSig_GainCompensation(ADC_DelSig_CFG2_INPUT_RANGE,
 140:Generated_Source\PSoC5/ADC_DelSig.c ****                                           ADC_DelSig_CFG2_IDEAL_DEC_GAIN,
 141:Generated_Source\PSoC5/ADC_DelSig.c ****                                           ADC_DelSig_CFG2_IDEAL_ODDDEC_GAIN,
 142:Generated_Source\PSoC5/ADC_DelSig.c ****                                           ADC_DelSig_CFG2_RESOLUTION,
 143:Generated_Source\PSoC5/ADC_DelSig.c ****                                           ADC_DelSig_CFG2);
 144:Generated_Source\PSoC5/ADC_DelSig.c ****     #endif /* ADC_DelSig_DEFAULT_NUM_CONFIGS > 1 */
 145:Generated_Source\PSoC5/ADC_DelSig.c ****     #if(ADC_DelSig_DEFAULT_NUM_CONFIGS > 2)
 146:Generated_Source\PSoC5/ADC_DelSig.c ****         ADC_DelSig_GainCompensation(ADC_DelSig_CFG3_INPUT_RANGE,
 147:Generated_Source\PSoC5/ADC_DelSig.c ****                                           ADC_DelSig_CFG3_IDEAL_DEC_GAIN,
 148:Generated_Source\PSoC5/ADC_DelSig.c ****                                           ADC_DelSig_CFG3_IDEAL_ODDDEC_GAIN,
 149:Generated_Source\PSoC5/ADC_DelSig.c ****                                           ADC_DelSig_CFG3_RESOLUTION,
 150:Generated_Source\PSoC5/ADC_DelSig.c ****                                           ADC_DelSig_CFG3);
 151:Generated_Source\PSoC5/ADC_DelSig.c ****     #endif /* ADC_DelSig_DEFAULT_NUM_CONFIGS > 2 */
 152:Generated_Source\PSoC5/ADC_DelSig.c ****     #if(ADC_DelSig_DEFAULT_NUM_CONFIGS > 3)
 153:Generated_Source\PSoC5/ADC_DelSig.c ****         ADC_DelSig_GainCompensation(ADC_DelSig_CFG4_INPUT_RANGE,
 154:Generated_Source\PSoC5/ADC_DelSig.c ****                                           ADC_DelSig_CFG4_IDEAL_DEC_GAIN,
 155:Generated_Source\PSoC5/ADC_DelSig.c ****                                           ADC_DelSig_CFG4_IDEAL_ODDDEC_GAIN,
 156:Generated_Source\PSoC5/ADC_DelSig.c ****                                           ADC_DelSig_CFG4_RESOLUTION,
 157:Generated_Source\PSoC5/ADC_DelSig.c ****                                           ADC_DelSig_CFG4);
 158:Generated_Source\PSoC5/ADC_DelSig.c ****     #endif /* ADC_DelSig_DEFAULT_NUM_CONFIGS > 3 */
 159:Generated_Source\PSoC5/ADC_DelSig.c **** 
 160:Generated_Source\PSoC5/ADC_DelSig.c ****     /* Set GCOR register for config1 */
 161:Generated_Source\PSoC5/ADC_DelSig.c ****     ADC_DelSig_DEC_GVAL_REG = ADC_DelSig_gcor[ADC_DelSig_Config - 1u].gval;
 164              		.loc 1 161 0
 165 0098 1D4A     		ldr	r2, .L2+64
 166 009a 0D4B     		ldr	r3, .L2
 167 009c 1B78     		ldrb	r3, [r3]
 168 009e DBB2     		uxtb	r3, r3
 169 00a0 013B     		subs	r3, r3, #1
 170 00a2 1C49     		ldr	r1, .L2+68
 171 00a4 9B00     		lsls	r3, r3, #2
 172 00a6 0B44     		add	r3, r3, r1
 173 00a8 9B78     		ldrb	r3, [r3, #2]	@ zero_extendqisi2
 174 00aa 1370     		strb	r3, [r2]
 162:Generated_Source\PSoC5/ADC_DelSig.c ****     CY_SET_REG16(ADC_DelSig_DEC_GCOR_16B_PTR, ADC_DelSig_gcor[ADC_DelSig_Config - 1u].gcor);
 175              		.loc 1 162 0
 176 00ac 1A4A     		ldr	r2, .L2+72
 177 00ae 084B     		ldr	r3, .L2
 178 00b0 1B78     		ldrb	r3, [r3]
 179 00b2 DBB2     		uxtb	r3, r3
 180 00b4 013B     		subs	r3, r3, #1
ARM GAS  C:\Users\rcaravac\AppData\Local\Temp\ccauAhrg.s 			page 7


 181 00b6 1749     		ldr	r1, .L2+68
 182 00b8 31F82330 		ldrh	r3, [r1, r3, lsl #2]
 183 00bc 1380     		strh	r3, [r2]	@ movhi
 163:Generated_Source\PSoC5/ADC_DelSig.c **** 
 164:Generated_Source\PSoC5/ADC_DelSig.c ****     /* Initialize the registers with default customizer settings for config1 */
 165:Generated_Source\PSoC5/ADC_DelSig.c ****     ADC_DelSig_InitConfig(ADC_DelSig_Config);
 184              		.loc 1 165 0
 185 00be 044B     		ldr	r3, .L2
 186 00c0 1B78     		ldrb	r3, [r3]
 187 00c2 DBB2     		uxtb	r3, r3
 188 00c4 1846     		mov	r0, r3
 189 00c6 FFF7FEFF 		bl	ADC_DelSig_InitConfig
 166:Generated_Source\PSoC5/ADC_DelSig.c **** }
 190              		.loc 1 166 0
 191 00ca 00BF     		nop
 192 00cc BD46     		mov	sp, r7
 193              		.cfi_def_cfa_register 13
 194              		@ sp needed
 195 00ce 80BD     		pop	{r7, pc}
 196              	.L3:
 197              		.align	2
 198              	.L2:
 199 00d0 00000000 		.word	ADC_DelSig_Config
 200 00d4 00000000 		.word	ADC_DelSig_convDone
 201 00d8 96580040 		.word	1073764502
 202 00dc 97580040 		.word	1073764503
 203 00e0 9E580040 		.word	1073764510
 204 00e4 075B0040 		.word	1073765127
 205 00e8 93580040 		.word	1073764499
 206 00ec 885B0040 		.word	1073765256
 207 00f0 895B0040 		.word	1073765257
 208 00f4 80580040 		.word	1073764480
 209 00f8 81580040 		.word	1073764481
 210 00fc 83580040 		.word	1073764483
 211 0100 88580040 		.word	1073764488
 212 0104 89580040 		.word	1073764489
 213 0108 8D580040 		.word	1073764493
 214 010c 014E0040 		.word	1073761793
 215 0110 0E4E0040 		.word	1073761806
 216 0114 08000000 		.word	ADC_DelSig_gcor
 217 0118 0C4E0040 		.word	1073761804
 218              		.cfi_endproc
 219              	.LFE0:
 220              		.size	ADC_DelSig_Init, .-ADC_DelSig_Init
 221              		.section	.text.ADC_DelSig_Enable,"ax",%progbits
 222              		.align	2
 223              		.global	ADC_DelSig_Enable
 224              		.thumb
 225              		.thumb_func
 226              		.type	ADC_DelSig_Enable, %function
 227              	ADC_DelSig_Enable:
 228              	.LFB1:
 167:Generated_Source\PSoC5/ADC_DelSig.c **** 
 168:Generated_Source\PSoC5/ADC_DelSig.c **** 
 169:Generated_Source\PSoC5/ADC_DelSig.c **** /******************************************************************************
 170:Generated_Source\PSoC5/ADC_DelSig.c **** * Function Name: ADC_DelSig_Enable
 171:Generated_Source\PSoC5/ADC_DelSig.c **** *******************************************************************************
ARM GAS  C:\Users\rcaravac\AppData\Local\Temp\ccauAhrg.s 			page 8


 172:Generated_Source\PSoC5/ADC_DelSig.c **** *
 173:Generated_Source\PSoC5/ADC_DelSig.c **** * Summary:
 174:Generated_Source\PSoC5/ADC_DelSig.c **** *  Enables the ADC DelSig block operation.
 175:Generated_Source\PSoC5/ADC_DelSig.c **** *
 176:Generated_Source\PSoC5/ADC_DelSig.c **** * Parameters:
 177:Generated_Source\PSoC5/ADC_DelSig.c **** *  None
 178:Generated_Source\PSoC5/ADC_DelSig.c **** *
 179:Generated_Source\PSoC5/ADC_DelSig.c **** * Return:
 180:Generated_Source\PSoC5/ADC_DelSig.c **** *  None
 181:Generated_Source\PSoC5/ADC_DelSig.c **** *
 182:Generated_Source\PSoC5/ADC_DelSig.c **** * Side Effects: 
 183:Generated_Source\PSoC5/ADC_DelSig.c **** *  Enables internal interrupt.
 184:Generated_Source\PSoC5/ADC_DelSig.c **** *
 185:Generated_Source\PSoC5/ADC_DelSig.c **** *******************************************************************************/
 186:Generated_Source\PSoC5/ADC_DelSig.c **** void ADC_DelSig_Enable(void) 
 187:Generated_Source\PSoC5/ADC_DelSig.c **** {
 229              		.loc 1 187 0
 230              		.cfi_startproc
 231              		@ args = 0, pretend = 0, frame = 8
 232              		@ frame_needed = 1, uses_anonymous_args = 0
 233 0000 80B5     		push	{r7, lr}
 234              		.cfi_def_cfa_offset 8
 235              		.cfi_offset 7, -8
 236              		.cfi_offset 14, -4
 237 0002 82B0     		sub	sp, sp, #8
 238              		.cfi_def_cfa_offset 16
 239 0004 00AF     		add	r7, sp, #0
 240              		.cfi_def_cfa_register 7
 188:Generated_Source\PSoC5/ADC_DelSig.c **** 	uint8 config;
 189:Generated_Source\PSoC5/ADC_DelSig.c ****     uint8 enableInterrupts;
 190:Generated_Source\PSoC5/ADC_DelSig.c ****     enableInterrupts = CyEnterCriticalSection();
 241              		.loc 1 190 0
 242 0006 FFF7FEFF 		bl	CyEnterCriticalSection
 243 000a 0346     		mov	r3, r0
 244 000c FB71     		strb	r3, [r7, #7]
 191:Generated_Source\PSoC5/ADC_DelSig.c **** 
 192:Generated_Source\PSoC5/ADC_DelSig.c ****     /* Read volatile variable to the local variable */
 193:Generated_Source\PSoC5/ADC_DelSig.c ****     config = ADC_DelSig_Config;
 245              		.loc 1 193 0
 246 000e 4A4B     		ldr	r3, .L7
 247 0010 1B78     		ldrb	r3, [r3]
 248 0012 BB71     		strb	r3, [r7, #6]
 194:Generated_Source\PSoC5/ADC_DelSig.c ****     
 195:Generated_Source\PSoC5/ADC_DelSig.c ****     /* Enable active mode power for ADC */
 196:Generated_Source\PSoC5/ADC_DelSig.c ****     ADC_DelSig_PWRMGR_DEC_REG |= ADC_DelSig_ACT_PWR_DEC_EN;
 249              		.loc 1 196 0
 250 0014 494A     		ldr	r2, .L7+4
 251 0016 494B     		ldr	r3, .L7+4
 252 0018 1B78     		ldrb	r3, [r3]
 253 001a DBB2     		uxtb	r3, r3
 254 001c 43F00103 		orr	r3, r3, #1
 255 0020 DBB2     		uxtb	r3, r3
 256 0022 1370     		strb	r3, [r2]
 197:Generated_Source\PSoC5/ADC_DelSig.c ****     ADC_DelSig_PWRMGR_DSM_REG |= ADC_DelSig_ACT_PWR_DSM_EN;
 257              		.loc 1 197 0
 258 0024 454A     		ldr	r2, .L7+4
 259 0026 454B     		ldr	r3, .L7+4
ARM GAS  C:\Users\rcaravac\AppData\Local\Temp\ccauAhrg.s 			page 9


 260 0028 1B78     		ldrb	r3, [r3]
 261 002a DBB2     		uxtb	r3, r3
 262 002c 43F01003 		orr	r3, r3, #16
 263 0030 DBB2     		uxtb	r3, r3
 264 0032 1370     		strb	r3, [r2]
 198:Generated_Source\PSoC5/ADC_DelSig.c **** 
 199:Generated_Source\PSoC5/ADC_DelSig.c ****      /* Enable alternative active mode power for ADC */
 200:Generated_Source\PSoC5/ADC_DelSig.c ****     ADC_DelSig_STBY_PWRMGR_DEC_REG |= ADC_DelSig_STBY_PWR_DEC_EN;
 265              		.loc 1 200 0
 266 0034 424A     		ldr	r2, .L7+8
 267 0036 424B     		ldr	r3, .L7+8
 268 0038 1B78     		ldrb	r3, [r3]
 269 003a DBB2     		uxtb	r3, r3
 270 003c 43F00103 		orr	r3, r3, #1
 271 0040 DBB2     		uxtb	r3, r3
 272 0042 1370     		strb	r3, [r2]
 201:Generated_Source\PSoC5/ADC_DelSig.c ****     ADC_DelSig_STBY_PWRMGR_DSM_REG |= ADC_DelSig_STBY_PWR_DSM_EN;
 273              		.loc 1 201 0
 274 0044 3E4A     		ldr	r2, .L7+8
 275 0046 3E4B     		ldr	r3, .L7+8
 276 0048 1B78     		ldrb	r3, [r3]
 277 004a DBB2     		uxtb	r3, r3
 278 004c 43F01003 		orr	r3, r3, #16
 279 0050 DBB2     		uxtb	r3, r3
 280 0052 1370     		strb	r3, [r2]
 202:Generated_Source\PSoC5/ADC_DelSig.c **** 
 203:Generated_Source\PSoC5/ADC_DelSig.c ****     /* Disable PRES, Enable power to VCMBUF0, REFBUF0 and REFBUF1, enable PRES */
 204:Generated_Source\PSoC5/ADC_DelSig.c ****     ADC_DelSig_RESET_CR4_REG |= ADC_DelSig_IGNORE_PRESA1;
 281              		.loc 1 204 0
 282 0054 3B4A     		ldr	r2, .L7+12
 283 0056 3B4B     		ldr	r3, .L7+12
 284 0058 1B78     		ldrb	r3, [r3]
 285 005a DBB2     		uxtb	r3, r3
 286 005c 43F00203 		orr	r3, r3, #2
 287 0060 DBB2     		uxtb	r3, r3
 288 0062 1370     		strb	r3, [r2]
 205:Generated_Source\PSoC5/ADC_DelSig.c ****     ADC_DelSig_RESET_CR5_REG |= ADC_DelSig_IGNORE_PRESA2;
 289              		.loc 1 205 0
 290 0064 384A     		ldr	r2, .L7+16
 291 0066 384B     		ldr	r3, .L7+16
 292 0068 1B78     		ldrb	r3, [r3]
 293 006a DBB2     		uxtb	r3, r3
 294 006c 43F00203 		orr	r3, r3, #2
 295 0070 DBB2     		uxtb	r3, r3
 296 0072 1370     		strb	r3, [r2]
 206:Generated_Source\PSoC5/ADC_DelSig.c **** 
 207:Generated_Source\PSoC5/ADC_DelSig.c ****     ADC_DelSig_DSM_CR17_REG |= (ADC_DelSig_DSM_EN_BUF_VREF | ADC_DelSig_DSM_EN_BUF_VCM);
 297              		.loc 1 207 0
 298 0074 354A     		ldr	r2, .L7+20
 299 0076 354B     		ldr	r3, .L7+20
 300 0078 1B78     		ldrb	r3, [r3]
 301 007a DBB2     		uxtb	r3, r3
 302 007c 43F00303 		orr	r3, r3, #3
 303 0080 DBB2     		uxtb	r3, r3
 304 0082 1370     		strb	r3, [r2]
 208:Generated_Source\PSoC5/ADC_DelSig.c **** 
 209:Generated_Source\PSoC5/ADC_DelSig.c ****     /* Code to disable the REFBUF0 if reference chosen is External ref */
ARM GAS  C:\Users\rcaravac\AppData\Local\Temp\ccauAhrg.s 			page 10


 210:Generated_Source\PSoC5/ADC_DelSig.c ****     #if (((ADC_DelSig_CFG1_REFERENCE == ADC_DelSig_EXT_REF_ON_P03) || \
 211:Generated_Source\PSoC5/ADC_DelSig.c ****           (ADC_DelSig_CFG1_REFERENCE == ADC_DelSig_EXT_REF_ON_P32)) || \
 212:Generated_Source\PSoC5/ADC_DelSig.c ****          ((ADC_DelSig_DEFAULT_NUM_CONFIGS > 1) && \
 213:Generated_Source\PSoC5/ADC_DelSig.c ****           ((ADC_DelSig_CFG2_REFERENCE == ADC_DelSig_EXT_REF_ON_P03) ||  \
 214:Generated_Source\PSoC5/ADC_DelSig.c ****            (ADC_DelSig_CFG2_REFERENCE == ADC_DelSig_EXT_REF_ON_P32))) || \
 215:Generated_Source\PSoC5/ADC_DelSig.c ****          ((ADC_DelSig_DEFAULT_NUM_CONFIGS > 2) && \
 216:Generated_Source\PSoC5/ADC_DelSig.c ****           ((ADC_DelSig_CFG3_REFERENCE == ADC_DelSig_EXT_REF_ON_P03) ||  \
 217:Generated_Source\PSoC5/ADC_DelSig.c ****            (ADC_DelSig_CFG3_REFERENCE == ADC_DelSig_EXT_REF_ON_P32))) || \
 218:Generated_Source\PSoC5/ADC_DelSig.c ****          ((ADC_DelSig_DEFAULT_NUM_CONFIGS > 3) && \
 219:Generated_Source\PSoC5/ADC_DelSig.c ****           ((ADC_DelSig_CFG4_REFERENCE == ADC_DelSig_EXT_REF_ON_P03) || \
 220:Generated_Source\PSoC5/ADC_DelSig.c ****            (ADC_DelSig_CFG4_REFERENCE == ADC_DelSig_EXT_REF_ON_P32))))
 221:Generated_Source\PSoC5/ADC_DelSig.c ****         if (((config == 1u) &&
 222:Generated_Source\PSoC5/ADC_DelSig.c ****             ((ADC_DelSig_CFG1_REFERENCE == ADC_DelSig_EXT_REF_ON_P03) ||
 223:Generated_Source\PSoC5/ADC_DelSig.c ****              (ADC_DelSig_CFG1_REFERENCE == ADC_DelSig_EXT_REF_ON_P32))) ||
 224:Generated_Source\PSoC5/ADC_DelSig.c ****             ((config == 2u) &&
 225:Generated_Source\PSoC5/ADC_DelSig.c ****             ((ADC_DelSig_CFG2_REFERENCE == ADC_DelSig_EXT_REF_ON_P03) ||
 226:Generated_Source\PSoC5/ADC_DelSig.c ****              (ADC_DelSig_CFG2_REFERENCE == ADC_DelSig_EXT_REF_ON_P32))) ||
 227:Generated_Source\PSoC5/ADC_DelSig.c ****             ((config == 3u) &&
 228:Generated_Source\PSoC5/ADC_DelSig.c ****             ((ADC_DelSig_CFG3_REFERENCE == ADC_DelSig_EXT_REF_ON_P03) ||
 229:Generated_Source\PSoC5/ADC_DelSig.c ****              (ADC_DelSig_CFG3_REFERENCE == ADC_DelSig_EXT_REF_ON_P32))) ||
 230:Generated_Source\PSoC5/ADC_DelSig.c ****             ((config == 4u) &&
 231:Generated_Source\PSoC5/ADC_DelSig.c ****             ((ADC_DelSig_CFG4_REFERENCE == ADC_DelSig_EXT_REF_ON_P03) ||
 232:Generated_Source\PSoC5/ADC_DelSig.c ****              (ADC_DelSig_CFG4_REFERENCE == ADC_DelSig_EXT_REF_ON_P32))))
 233:Generated_Source\PSoC5/ADC_DelSig.c ****         {
 234:Generated_Source\PSoC5/ADC_DelSig.c ****             /* Disable the REFBUF0 */
 235:Generated_Source\PSoC5/ADC_DelSig.c ****             ADC_DelSig_DSM_CR17_REG &= (uint8)~ADC_DelSig_DSM_EN_BUF_VREF;
 236:Generated_Source\PSoC5/ADC_DelSig.c ****         }
 237:Generated_Source\PSoC5/ADC_DelSig.c ****     #endif /* External ref */
 238:Generated_Source\PSoC5/ADC_DelSig.c **** 
 239:Generated_Source\PSoC5/ADC_DelSig.c ****     #if (((ADC_DelSig_CFG1_INPUT_RANGE == ADC_DelSig_IR_VSSA_TO_2VREF) || \
 240:Generated_Source\PSoC5/ADC_DelSig.c ****          ((ADC_DelSig_DEFAULT_NUM_CONFIGS > 1) && \
 241:Generated_Source\PSoC5/ADC_DelSig.c ****           (ADC_DelSig_CFG2_INPUT_RANGE == ADC_DelSig_IR_VSSA_TO_2VREF)) || \
 242:Generated_Source\PSoC5/ADC_DelSig.c ****          ((ADC_DelSig_DEFAULT_NUM_CONFIGS > 2) && \
 243:Generated_Source\PSoC5/ADC_DelSig.c ****           (ADC_DelSig_CFG3_INPUT_RANGE == ADC_DelSig_IR_VSSA_TO_2VREF)) || \
 244:Generated_Source\PSoC5/ADC_DelSig.c ****          ((ADC_DelSig_DEFAULT_NUM_CONFIGS > 3) && \
 245:Generated_Source\PSoC5/ADC_DelSig.c ****           (ADC_DelSig_CFG4_INPUT_RANGE == ADC_DelSig_IR_VSSA_TO_2VREF))))
 246:Generated_Source\PSoC5/ADC_DelSig.c ****         if(((config == 1u) &&
 305              		.loc 1 246 0
 306 0084 BB79     		ldrb	r3, [r7, #6]	@ zero_extendqisi2
 307 0086 012B     		cmp	r3, #1
 308 0088 07D1     		bne	.L6
 247:Generated_Source\PSoC5/ADC_DelSig.c ****             (ADC_DelSig_CFG1_INPUT_RANGE == ADC_DelSig_IR_VSSA_TO_2VREF) &&
 248:Generated_Source\PSoC5/ADC_DelSig.c ****             ((ADC_DelSig_CFG1_REFERENCE != ADC_DelSig_EXT_REF_ON_P03) &&
 249:Generated_Source\PSoC5/ADC_DelSig.c ****              (ADC_DelSig_CFG1_REFERENCE != ADC_DelSig_EXT_REF_ON_P32))) ||
 250:Generated_Source\PSoC5/ADC_DelSig.c ****              ((config == 2u) &&
 251:Generated_Source\PSoC5/ADC_DelSig.c ****               (ADC_DelSig_CFG2_INPUT_RANGE == ADC_DelSig_IR_VSSA_TO_2VREF) &&
 252:Generated_Source\PSoC5/ADC_DelSig.c ****              ((ADC_DelSig_CFG2_REFERENCE != ADC_DelSig_EXT_REF_ON_P03) &&
 253:Generated_Source\PSoC5/ADC_DelSig.c ****              (ADC_DelSig_CFG2_REFERENCE != ADC_DelSig_EXT_REF_ON_P32))) ||
 254:Generated_Source\PSoC5/ADC_DelSig.c ****              ((config == 3u) &&
 255:Generated_Source\PSoC5/ADC_DelSig.c ****               (ADC_DelSig_CFG3_INPUT_RANGE == ADC_DelSig_IR_VSSA_TO_2VREF) &&
 256:Generated_Source\PSoC5/ADC_DelSig.c ****              ((ADC_DelSig_CFG3_REFERENCE != ADC_DelSig_EXT_REF_ON_P03) &&
 257:Generated_Source\PSoC5/ADC_DelSig.c ****              (ADC_DelSig_CFG3_REFERENCE != ADC_DelSig_EXT_REF_ON_P32))) ||
 258:Generated_Source\PSoC5/ADC_DelSig.c ****              ((config == 4u) &&
 259:Generated_Source\PSoC5/ADC_DelSig.c ****               (ADC_DelSig_CFG4_INPUT_RANGE == ADC_DelSig_IR_VSSA_TO_2VREF) &&
 260:Generated_Source\PSoC5/ADC_DelSig.c ****              ((ADC_DelSig_CFG4_REFERENCE != ADC_DelSig_EXT_REF_ON_P03) &&
 261:Generated_Source\PSoC5/ADC_DelSig.c ****              (ADC_DelSig_CFG4_REFERENCE != ADC_DelSig_EXT_REF_ON_P32))))
 262:Generated_Source\PSoC5/ADC_DelSig.c ****         {
ARM GAS  C:\Users\rcaravac\AppData\Local\Temp\ccauAhrg.s 			page 11


 263:Generated_Source\PSoC5/ADC_DelSig.c ****             /* Enable the REFBUF1 */
 264:Generated_Source\PSoC5/ADC_DelSig.c ****             ADC_DelSig_DSM_REF0_REG |= ADC_DelSig_DSM_EN_BUF_VREF_INN;
 309              		.loc 1 264 0
 310 008a 314A     		ldr	r2, .L7+24
 311 008c 304B     		ldr	r3, .L7+24
 312 008e 1B78     		ldrb	r3, [r3]
 313 0090 DBB2     		uxtb	r3, r3
 314 0092 43F00803 		orr	r3, r3, #8
 315 0096 DBB2     		uxtb	r3, r3
 316 0098 1370     		strb	r3, [r2]
 317              	.L6:
 265:Generated_Source\PSoC5/ADC_DelSig.c ****         }
 266:Generated_Source\PSoC5/ADC_DelSig.c ****     #endif /* VSSA_TO_2VREF */
 267:Generated_Source\PSoC5/ADC_DelSig.c ****     if(config != 0u)
 268:Generated_Source\PSoC5/ADC_DelSig.c ****     {
 269:Generated_Source\PSoC5/ADC_DelSig.c ****         /* Suppress compiler warning */
 270:Generated_Source\PSoC5/ADC_DelSig.c ****     }
 271:Generated_Source\PSoC5/ADC_DelSig.c **** 
 272:Generated_Source\PSoC5/ADC_DelSig.c ****     /* Wait for 3 microseconds */
 273:Generated_Source\PSoC5/ADC_DelSig.c ****     CyDelayUs(ADC_DelSig_PRES_DELAY_TIME);
 318              		.loc 1 273 0
 319 009a 0320     		movs	r0, #3
 320 009c FFF7FEFF 		bl	CyDelayUs
 274:Generated_Source\PSoC5/ADC_DelSig.c **** 
 275:Generated_Source\PSoC5/ADC_DelSig.c ****     /* Enable the press circuit */
 276:Generated_Source\PSoC5/ADC_DelSig.c ****     ADC_DelSig_RESET_CR4_REG &= (uint8)~ADC_DelSig_IGNORE_PRESA1;
 321              		.loc 1 276 0
 322 00a0 284A     		ldr	r2, .L7+12
 323 00a2 284B     		ldr	r3, .L7+12
 324 00a4 1B78     		ldrb	r3, [r3]
 325 00a6 DBB2     		uxtb	r3, r3
 326 00a8 23F00203 		bic	r3, r3, #2
 327 00ac DBB2     		uxtb	r3, r3
 328 00ae 1370     		strb	r3, [r2]
 277:Generated_Source\PSoC5/ADC_DelSig.c ****     ADC_DelSig_RESET_CR5_REG &= (uint8)~ADC_DelSig_IGNORE_PRESA2;
 329              		.loc 1 277 0
 330 00b0 254A     		ldr	r2, .L7+16
 331 00b2 254B     		ldr	r3, .L7+16
 332 00b4 1B78     		ldrb	r3, [r3]
 333 00b6 DBB2     		uxtb	r3, r3
 334 00b8 23F00203 		bic	r3, r3, #2
 335 00bc DBB2     		uxtb	r3, r3
 336 00be 1370     		strb	r3, [r2]
 278:Generated_Source\PSoC5/ADC_DelSig.c **** 
 279:Generated_Source\PSoC5/ADC_DelSig.c ****     /* Enable negative pumps for DSM  */
 280:Generated_Source\PSoC5/ADC_DelSig.c ****     ADC_DelSig_PUMP_CR1_REG  |= ( ADC_DelSig_PUMP_CR1_CLKSEL | ADC_DelSig_PUMP_CR1_FORCE );
 337              		.loc 1 280 0
 338 00c0 244A     		ldr	r2, .L7+28
 339 00c2 244B     		ldr	r3, .L7+28
 340 00c4 1B78     		ldrb	r3, [r3]
 341 00c6 DBB2     		uxtb	r3, r3
 342 00c8 43F00603 		orr	r3, r3, #6
 343 00cc DBB2     		uxtb	r3, r3
 344 00ce 1370     		strb	r3, [r2]
 281:Generated_Source\PSoC5/ADC_DelSig.c **** 
 282:Generated_Source\PSoC5/ADC_DelSig.c ****     /* Enable Modulator Chopping if required */
 283:Generated_Source\PSoC5/ADC_DelSig.c ****     ADC_DelSig_DSM_CR2_REG = ADC_DelSig_CFG1_DSM_CR2;
ARM GAS  C:\Users\rcaravac\AppData\Local\Temp\ccauAhrg.s 			page 12


 345              		.loc 1 283 0
 346 00d0 214B     		ldr	r3, .L7+32
 347 00d2 7A22     		movs	r2, #122
 348 00d4 1A70     		strb	r2, [r3]
 284:Generated_Source\PSoC5/ADC_DelSig.c **** 
 285:Generated_Source\PSoC5/ADC_DelSig.c ****     /* This is only valid if there is an internal clock */
 286:Generated_Source\PSoC5/ADC_DelSig.c ****     #if(ADC_DelSig_DEFAULT_INTERNAL_CLK)
 287:Generated_Source\PSoC5/ADC_DelSig.c ****         ADC_DelSig_PWRMGR_CLK_REG |= ADC_DelSig_ACT_PWR_CLK_EN;
 349              		.loc 1 287 0
 350 00d6 214A     		ldr	r2, .L7+36
 351 00d8 204B     		ldr	r3, .L7+36
 352 00da 1B78     		ldrb	r3, [r3]
 353 00dc DBB2     		uxtb	r3, r3
 354 00de 43F00103 		orr	r3, r3, #1
 355 00e2 DBB2     		uxtb	r3, r3
 356 00e4 1370     		strb	r3, [r2]
 288:Generated_Source\PSoC5/ADC_DelSig.c ****         ADC_DelSig_STBY_PWRMGR_CLK_REG |= ADC_DelSig_STBY_PWR_CLK_EN;
 357              		.loc 1 288 0
 358 00e6 1E4A     		ldr	r2, .L7+40
 359 00e8 1D4B     		ldr	r3, .L7+40
 360 00ea 1B78     		ldrb	r3, [r3]
 361 00ec DBB2     		uxtb	r3, r3
 362 00ee 43F00103 		orr	r3, r3, #1
 363 00f2 DBB2     		uxtb	r3, r3
 364 00f4 1370     		strb	r3, [r2]
 289:Generated_Source\PSoC5/ADC_DelSig.c ****     #endif /* ADC_DelSig_DEFAULT_INTERNAL_CLK */
 290:Generated_Source\PSoC5/ADC_DelSig.c **** 
 291:Generated_Source\PSoC5/ADC_DelSig.c ****     /* Enable the active and alternate active power for charge pump clock */
 292:Generated_Source\PSoC5/ADC_DelSig.c ****     ADC_DelSig_PWRMGR_CHARGE_PUMP_CLK_REG |= ADC_DelSig_ACT_PWR_CHARGE_PUMP_CLK_EN;
 365              		.loc 1 292 0
 366 00f6 1B4A     		ldr	r2, .L7+44
 367 00f8 1A4B     		ldr	r3, .L7+44
 368 00fa 1B78     		ldrb	r3, [r3]
 369 00fc DBB2     		uxtb	r3, r3
 370 00fe 43F00103 		orr	r3, r3, #1
 371 0102 DBB2     		uxtb	r3, r3
 372 0104 1370     		strb	r3, [r2]
 293:Generated_Source\PSoC5/ADC_DelSig.c ****     ADC_DelSig_STBY_PWRMGR_CHARGE_PUMP_CLK_REG |= ADC_DelSig_STBY_PWR_CHARGE_PUMP_CLK_EN;
 373              		.loc 1 293 0
 374 0106 184A     		ldr	r2, .L7+48
 375 0108 174B     		ldr	r3, .L7+48
 376 010a 1B78     		ldrb	r3, [r3]
 377 010c DBB2     		uxtb	r3, r3
 378 010e 43F00103 		orr	r3, r3, #1
 379 0112 DBB2     		uxtb	r3, r3
 380 0114 1370     		strb	r3, [r2]
 294:Generated_Source\PSoC5/ADC_DelSig.c **** 
 295:Generated_Source\PSoC5/ADC_DelSig.c ****     #if(ADC_DelSig_IRQ_REMOVE == 0u)
 296:Generated_Source\PSoC5/ADC_DelSig.c ****         /* Clear a pending interrupt */
 297:Generated_Source\PSoC5/ADC_DelSig.c ****         CyIntClearPending(ADC_DelSig_INTC_NUMBER);
 381              		.loc 1 297 0
 382 0116 154B     		ldr	r3, .L7+52
 383 0118 4FF00052 		mov	r2, #536870912
 384 011c 1A60     		str	r2, [r3]
 298:Generated_Source\PSoC5/ADC_DelSig.c ****         /* Enable interrupt */
 299:Generated_Source\PSoC5/ADC_DelSig.c ****         CyIntEnable(ADC_DelSig_INTC_NUMBER);
 385              		.loc 1 299 0
ARM GAS  C:\Users\rcaravac\AppData\Local\Temp\ccauAhrg.s 			page 13


 386 011e 144B     		ldr	r3, .L7+56
 387 0120 4FF00052 		mov	r2, #536870912
 388 0124 1A60     		str	r2, [r3]
 300:Generated_Source\PSoC5/ADC_DelSig.c ****     #endif   /* End ADC_DelSig_IRQ_REMOVE */
 301:Generated_Source\PSoC5/ADC_DelSig.c **** 
 302:Generated_Source\PSoC5/ADC_DelSig.c ****     CyExitCriticalSection(enableInterrupts);
 389              		.loc 1 302 0
 390 0126 FB79     		ldrb	r3, [r7, #7]	@ zero_extendqisi2
 391 0128 1846     		mov	r0, r3
 392 012a FFF7FEFF 		bl	CyExitCriticalSection
 303:Generated_Source\PSoC5/ADC_DelSig.c **** 
 304:Generated_Source\PSoC5/ADC_DelSig.c **** }
 393              		.loc 1 304 0
 394 012e 00BF     		nop
 395 0130 0837     		adds	r7, r7, #8
 396              		.cfi_def_cfa_offset 8
 397 0132 BD46     		mov	sp, r7
 398              		.cfi_def_cfa_register 13
 399              		@ sp needed
 400 0134 80BD     		pop	{r7, pc}
 401              	.L8:
 402 0136 00BF     		.align	2
 403              	.L7:
 404 0138 00000000 		.word	ADC_DelSig_Config
 405 013c AA430040 		.word	1073759146
 406 0140 BA430040 		.word	1073759162
 407 0144 F8460040 		.word	1073759992
 408 0148 F9460040 		.word	1073759993
 409 014c 91580040 		.word	1073764497
 410 0150 92580040 		.word	1073764498
 411 0154 77580040 		.word	1073764471
 412 0158 82580040 		.word	1073764482
 413 015c A1430040 		.word	1073759137
 414 0160 B1430040 		.word	1073759153
 415 0164 A2430040 		.word	1073759138
 416 0168 B2430040 		.word	1073759154
 417 016c 80E200E0 		.word	-536812928
 418 0170 00E100E0 		.word	-536813312
 419              		.cfi_endproc
 420              	.LFE1:
 421              		.size	ADC_DelSig_Enable, .-ADC_DelSig_Enable
 422              		.section	.text.ADC_DelSig_Start,"ax",%progbits
 423              		.align	2
 424              		.global	ADC_DelSig_Start
 425              		.thumb
 426              		.thumb_func
 427              		.type	ADC_DelSig_Start, %function
 428              	ADC_DelSig_Start:
 429              	.LFB2:
 305:Generated_Source\PSoC5/ADC_DelSig.c **** 
 306:Generated_Source\PSoC5/ADC_DelSig.c **** 
 307:Generated_Source\PSoC5/ADC_DelSig.c **** /*******************************************************************************
 308:Generated_Source\PSoC5/ADC_DelSig.c **** * Function Name: ADC_DelSig_Start
 309:Generated_Source\PSoC5/ADC_DelSig.c **** ********************************************************************************
 310:Generated_Source\PSoC5/ADC_DelSig.c **** *
 311:Generated_Source\PSoC5/ADC_DelSig.c **** * Summary:
 312:Generated_Source\PSoC5/ADC_DelSig.c **** *  Performs all required initialization for this component and enables
ARM GAS  C:\Users\rcaravac\AppData\Local\Temp\ccauAhrg.s 			page 14


 313:Generated_Source\PSoC5/ADC_DelSig.c **** *  the power. It configure all the register the first time it is called.
 314:Generated_Source\PSoC5/ADC_DelSig.c **** *  Subsequent calls of the Start function only enable the ADC and turn
 315:Generated_Source\PSoC5/ADC_DelSig.c **** *  on the power. If multiple configurations are selected, it will
 316:Generated_Source\PSoC5/ADC_DelSig.c **** *  configure the ADC for configuration 1 by default, unless the
 317:Generated_Source\PSoC5/ADC_DelSig.c **** *  ADC_DelSig_SelectConfiguration( ) function has been called to change
 318:Generated_Source\PSoC5/ADC_DelSig.c **** *  the default setting.
 319:Generated_Source\PSoC5/ADC_DelSig.c **** *
 320:Generated_Source\PSoC5/ADC_DelSig.c **** * Parameters:
 321:Generated_Source\PSoC5/ADC_DelSig.c **** *  None
 322:Generated_Source\PSoC5/ADC_DelSig.c **** *
 323:Generated_Source\PSoC5/ADC_DelSig.c **** * Return:
 324:Generated_Source\PSoC5/ADC_DelSig.c **** *  None
 325:Generated_Source\PSoC5/ADC_DelSig.c **** *
 326:Generated_Source\PSoC5/ADC_DelSig.c **** * Global variables:
 327:Generated_Source\PSoC5/ADC_DelSig.c **** *  ADC_DelSig_initVar:  Used to check the initial configuration,
 328:Generated_Source\PSoC5/ADC_DelSig.c **** *  modified when this function is called for the first time.
 329:Generated_Source\PSoC5/ADC_DelSig.c **** *
 330:Generated_Source\PSoC5/ADC_DelSig.c **** * Side Effects: 
 331:Generated_Source\PSoC5/ADC_DelSig.c **** *  Enables internal interrupt.
 332:Generated_Source\PSoC5/ADC_DelSig.c **** *
 333:Generated_Source\PSoC5/ADC_DelSig.c **** *******************************************************************************/
 334:Generated_Source\PSoC5/ADC_DelSig.c **** void ADC_DelSig_Start(void) 
 335:Generated_Source\PSoC5/ADC_DelSig.c **** {
 430              		.loc 1 335 0
 431              		.cfi_startproc
 432              		@ args = 0, pretend = 0, frame = 0
 433              		@ frame_needed = 1, uses_anonymous_args = 0
 434 0000 80B5     		push	{r7, lr}
 435              		.cfi_def_cfa_offset 8
 436              		.cfi_offset 7, -8
 437              		.cfi_offset 14, -4
 438 0002 00AF     		add	r7, sp, #0
 439              		.cfi_def_cfa_register 7
 336:Generated_Source\PSoC5/ADC_DelSig.c ****     if(ADC_DelSig_initVar == 0u)
 440              		.loc 1 336 0
 441 0004 084B     		ldr	r3, .L12
 442 0006 1B78     		ldrb	r3, [r3]	@ zero_extendqisi2
 443 0008 002B     		cmp	r3, #0
 444 000a 09D1     		bne	.L10
 337:Generated_Source\PSoC5/ADC_DelSig.c ****     {
 338:Generated_Source\PSoC5/ADC_DelSig.c ****         if(ADC_DelSig_started == 0u)
 445              		.loc 1 338 0
 446 000c 074B     		ldr	r3, .L12+4
 447 000e 1B78     		ldrb	r3, [r3]
 448 0010 DBB2     		uxtb	r3, r3
 449 0012 002B     		cmp	r3, #0
 450 0014 01D1     		bne	.L11
 339:Generated_Source\PSoC5/ADC_DelSig.c ****         {
 340:Generated_Source\PSoC5/ADC_DelSig.c ****             ADC_DelSig_Init();
 451              		.loc 1 340 0
 452 0016 FFF7FEFF 		bl	ADC_DelSig_Init
 453              	.L11:
 341:Generated_Source\PSoC5/ADC_DelSig.c ****         }
 342:Generated_Source\PSoC5/ADC_DelSig.c ****         ADC_DelSig_initVar = 1u;
 454              		.loc 1 342 0
 455 001a 034B     		ldr	r3, .L12
 456 001c 0122     		movs	r2, #1
ARM GAS  C:\Users\rcaravac\AppData\Local\Temp\ccauAhrg.s 			page 15


 457 001e 1A70     		strb	r2, [r3]
 458              	.L10:
 343:Generated_Source\PSoC5/ADC_DelSig.c ****     }
 344:Generated_Source\PSoC5/ADC_DelSig.c **** 
 345:Generated_Source\PSoC5/ADC_DelSig.c ****     /* Enable the ADC */
 346:Generated_Source\PSoC5/ADC_DelSig.c ****     ADC_DelSig_Enable();
 459              		.loc 1 346 0
 460 0020 FFF7FEFF 		bl	ADC_DelSig_Enable
 347:Generated_Source\PSoC5/ADC_DelSig.c **** }
 461              		.loc 1 347 0
 462 0024 00BF     		nop
 463 0026 80BD     		pop	{r7, pc}
 464              	.L13:
 465              		.align	2
 466              	.L12:
 467 0028 00000000 		.word	ADC_DelSig_initVar
 468 002c 00000000 		.word	ADC_DelSig_started
 469              		.cfi_endproc
 470              	.LFE2:
 471              		.size	ADC_DelSig_Start, .-ADC_DelSig_Start
 472              		.section	.text.ADC_DelSig_Stop,"ax",%progbits
 473              		.align	2
 474              		.global	ADC_DelSig_Stop
 475              		.thumb
 476              		.thumb_func
 477              		.type	ADC_DelSig_Stop, %function
 478              	ADC_DelSig_Stop:
 479              	.LFB3:
 348:Generated_Source\PSoC5/ADC_DelSig.c **** 
 349:Generated_Source\PSoC5/ADC_DelSig.c **** 
 350:Generated_Source\PSoC5/ADC_DelSig.c **** /*******************************************************************************
 351:Generated_Source\PSoC5/ADC_DelSig.c **** * Function Name: ADC_DelSig_Stop
 352:Generated_Source\PSoC5/ADC_DelSig.c **** ********************************************************************************
 353:Generated_Source\PSoC5/ADC_DelSig.c **** *
 354:Generated_Source\PSoC5/ADC_DelSig.c **** * Summary:
 355:Generated_Source\PSoC5/ADC_DelSig.c **** *  This function stops and powers down the ADC component and the internal
 356:Generated_Source\PSoC5/ADC_DelSig.c **** *  clock if the external clock is not selected. If an external clock is
 357:Generated_Source\PSoC5/ADC_DelSig.c **** *  used, it is up to the designer to power down the external clock it
 358:Generated_Source\PSoC5/ADC_DelSig.c **** *  required.
 359:Generated_Source\PSoC5/ADC_DelSig.c **** *
 360:Generated_Source\PSoC5/ADC_DelSig.c **** * Parameters:
 361:Generated_Source\PSoC5/ADC_DelSig.c **** *  None
 362:Generated_Source\PSoC5/ADC_DelSig.c **** *
 363:Generated_Source\PSoC5/ADC_DelSig.c **** * Return:
 364:Generated_Source\PSoC5/ADC_DelSig.c **** *  None
 365:Generated_Source\PSoC5/ADC_DelSig.c **** *
 366:Generated_Source\PSoC5/ADC_DelSig.c **** *******************************************************************************/
 367:Generated_Source\PSoC5/ADC_DelSig.c **** void ADC_DelSig_Stop(void) 
 368:Generated_Source\PSoC5/ADC_DelSig.c **** {
 480              		.loc 1 368 0
 481              		.cfi_startproc
 482              		@ args = 0, pretend = 0, frame = 8
 483              		@ frame_needed = 1, uses_anonymous_args = 0
 484 0000 80B5     		push	{r7, lr}
 485              		.cfi_def_cfa_offset 8
 486              		.cfi_offset 7, -8
 487              		.cfi_offset 14, -4
ARM GAS  C:\Users\rcaravac\AppData\Local\Temp\ccauAhrg.s 			page 16


 488 0002 82B0     		sub	sp, sp, #8
 489              		.cfi_def_cfa_offset 16
 490 0004 00AF     		add	r7, sp, #0
 491              		.cfi_def_cfa_register 7
 369:Generated_Source\PSoC5/ADC_DelSig.c ****     uint8 enableInterrupts;
 370:Generated_Source\PSoC5/ADC_DelSig.c ****     enableInterrupts = CyEnterCriticalSection();
 492              		.loc 1 370 0
 493 0006 FFF7FEFF 		bl	CyEnterCriticalSection
 494 000a 0346     		mov	r3, r0
 495 000c FB71     		strb	r3, [r7, #7]
 371:Generated_Source\PSoC5/ADC_DelSig.c **** 
 372:Generated_Source\PSoC5/ADC_DelSig.c ****     /* Stop conversions */
 373:Generated_Source\PSoC5/ADC_DelSig.c ****     ADC_DelSig_DEC_CR_REG &= (uint8)~ADC_DelSig_DEC_START_CONV;
 496              		.loc 1 373 0
 497 000e 4D4A     		ldr	r2, .L15
 498 0010 4C4B     		ldr	r3, .L15
 499 0012 1B78     		ldrb	r3, [r3]
 500 0014 DBB2     		uxtb	r3, r3
 501 0016 23F00103 		bic	r3, r3, #1
 502 001a DBB2     		uxtb	r3, r3
 503 001c 1370     		strb	r3, [r2]
 374:Generated_Source\PSoC5/ADC_DelSig.c ****     ADC_DelSig_DEC_SR_REG |=  ADC_DelSig_DEC_INTR_CLEAR;
 504              		.loc 1 374 0
 505 001e 4A4A     		ldr	r2, .L15+4
 506 0020 494B     		ldr	r3, .L15+4
 507 0022 1B78     		ldrb	r3, [r3]
 508 0024 DBB2     		uxtb	r3, r3
 509 0026 43F00403 		orr	r3, r3, #4
 510 002a DBB2     		uxtb	r3, r3
 511 002c 1370     		strb	r3, [r2]
 375:Generated_Source\PSoC5/ADC_DelSig.c **** 
 376:Generated_Source\PSoC5/ADC_DelSig.c ****     /* Disable PRES, Disable power to VCMBUF0, REFBUF0 and REFBUF1,
 377:Generated_Source\PSoC5/ADC_DelSig.c ****        enable PRES */
 378:Generated_Source\PSoC5/ADC_DelSig.c ****     ADC_DelSig_RESET_CR4_REG |= ADC_DelSig_IGNORE_PRESA1;
 512              		.loc 1 378 0
 513 002e 474A     		ldr	r2, .L15+8
 514 0030 464B     		ldr	r3, .L15+8
 515 0032 1B78     		ldrb	r3, [r3]
 516 0034 DBB2     		uxtb	r3, r3
 517 0036 43F00203 		orr	r3, r3, #2
 518 003a DBB2     		uxtb	r3, r3
 519 003c 1370     		strb	r3, [r2]
 379:Generated_Source\PSoC5/ADC_DelSig.c ****     ADC_DelSig_RESET_CR5_REG |= ADC_DelSig_IGNORE_PRESA2;
 520              		.loc 1 379 0
 521 003e 444A     		ldr	r2, .L15+12
 522 0040 434B     		ldr	r3, .L15+12
 523 0042 1B78     		ldrb	r3, [r3]
 524 0044 DBB2     		uxtb	r3, r3
 525 0046 43F00203 		orr	r3, r3, #2
 526 004a DBB2     		uxtb	r3, r3
 527 004c 1370     		strb	r3, [r2]
 380:Generated_Source\PSoC5/ADC_DelSig.c **** 
 381:Generated_Source\PSoC5/ADC_DelSig.c ****     ADC_DelSig_DSM_CR17_REG &= (uint8)~(ADC_DelSig_DSM_EN_BUF_VREF | ADC_DelSig_DSM_EN_BUF_VCM);
 528              		.loc 1 381 0
 529 004e 414A     		ldr	r2, .L15+16
 530 0050 404B     		ldr	r3, .L15+16
 531 0052 1B78     		ldrb	r3, [r3]
ARM GAS  C:\Users\rcaravac\AppData\Local\Temp\ccauAhrg.s 			page 17


 532 0054 DBB2     		uxtb	r3, r3
 533 0056 23F00303 		bic	r3, r3, #3
 534 005a DBB2     		uxtb	r3, r3
 535 005c 1370     		strb	r3, [r2]
 382:Generated_Source\PSoC5/ADC_DelSig.c ****     ADC_DelSig_DSM_REF0_REG &= (uint8)~ADC_DelSig_DSM_EN_BUF_VREF_INN;
 536              		.loc 1 382 0
 537 005e 3E4A     		ldr	r2, .L15+20
 538 0060 3D4B     		ldr	r3, .L15+20
 539 0062 1B78     		ldrb	r3, [r3]
 540 0064 DBB2     		uxtb	r3, r3
 541 0066 23F00803 		bic	r3, r3, #8
 542 006a DBB2     		uxtb	r3, r3
 543 006c 1370     		strb	r3, [r2]
 383:Generated_Source\PSoC5/ADC_DelSig.c **** 
 384:Generated_Source\PSoC5/ADC_DelSig.c ****     /* Wait for 3 microseconds. */
 385:Generated_Source\PSoC5/ADC_DelSig.c ****     CyDelayUs(ADC_DelSig_PRES_DELAY_TIME);
 544              		.loc 1 385 0
 545 006e 0320     		movs	r0, #3
 546 0070 FFF7FEFF 		bl	CyDelayUs
 386:Generated_Source\PSoC5/ADC_DelSig.c **** 
 387:Generated_Source\PSoC5/ADC_DelSig.c ****     /* Enable the press circuit */
 388:Generated_Source\PSoC5/ADC_DelSig.c ****     ADC_DelSig_RESET_CR4_REG &= (uint8)~ADC_DelSig_IGNORE_PRESA1;
 547              		.loc 1 388 0
 548 0074 354A     		ldr	r2, .L15+8
 549 0076 354B     		ldr	r3, .L15+8
 550 0078 1B78     		ldrb	r3, [r3]
 551 007a DBB2     		uxtb	r3, r3
 552 007c 23F00203 		bic	r3, r3, #2
 553 0080 DBB2     		uxtb	r3, r3
 554 0082 1370     		strb	r3, [r2]
 389:Generated_Source\PSoC5/ADC_DelSig.c ****     ADC_DelSig_RESET_CR5_REG &= (uint8)~ADC_DelSig_IGNORE_PRESA2;
 555              		.loc 1 389 0
 556 0084 324A     		ldr	r2, .L15+12
 557 0086 324B     		ldr	r3, .L15+12
 558 0088 1B78     		ldrb	r3, [r3]
 559 008a DBB2     		uxtb	r3, r3
 560 008c 23F00203 		bic	r3, r3, #2
 561 0090 DBB2     		uxtb	r3, r3
 562 0092 1370     		strb	r3, [r2]
 390:Generated_Source\PSoC5/ADC_DelSig.c **** 
 391:Generated_Source\PSoC5/ADC_DelSig.c ****     /* Disable power to the ADC */
 392:Generated_Source\PSoC5/ADC_DelSig.c ****     ADC_DelSig_PWRMGR_DSM_REG &= (uint8)~ADC_DelSig_ACT_PWR_DSM_EN;
 563              		.loc 1 392 0
 564 0094 314A     		ldr	r2, .L15+24
 565 0096 314B     		ldr	r3, .L15+24
 566 0098 1B78     		ldrb	r3, [r3]
 567 009a DBB2     		uxtb	r3, r3
 568 009c 23F01003 		bic	r3, r3, #16
 569 00a0 DBB2     		uxtb	r3, r3
 570 00a2 1370     		strb	r3, [r2]
 393:Generated_Source\PSoC5/ADC_DelSig.c **** 
 394:Generated_Source\PSoC5/ADC_DelSig.c ****     /* Disable power to Decimator block */
 395:Generated_Source\PSoC5/ADC_DelSig.c ****     ADC_DelSig_PWRMGR_DEC_REG &= (uint8)~ADC_DelSig_ACT_PWR_DEC_EN;
 571              		.loc 1 395 0
 572 00a4 2D4A     		ldr	r2, .L15+24
 573 00a6 2D4B     		ldr	r3, .L15+24
 574 00a8 1B78     		ldrb	r3, [r3]
ARM GAS  C:\Users\rcaravac\AppData\Local\Temp\ccauAhrg.s 			page 18


 575 00aa DBB2     		uxtb	r3, r3
 576 00ac 23F00103 		bic	r3, r3, #1
 577 00b0 DBB2     		uxtb	r3, r3
 578 00b2 1370     		strb	r3, [r2]
 396:Generated_Source\PSoC5/ADC_DelSig.c **** 
 397:Generated_Source\PSoC5/ADC_DelSig.c ****     /* Disable alternative active power to the ADC */
 398:Generated_Source\PSoC5/ADC_DelSig.c ****     ADC_DelSig_STBY_PWRMGR_DEC_REG &= (uint8)~ADC_DelSig_STBY_PWR_DEC_EN;
 579              		.loc 1 398 0
 580 00b4 2A4A     		ldr	r2, .L15+28
 581 00b6 2A4B     		ldr	r3, .L15+28
 582 00b8 1B78     		ldrb	r3, [r3]
 583 00ba DBB2     		uxtb	r3, r3
 584 00bc 23F00103 		bic	r3, r3, #1
 585 00c0 DBB2     		uxtb	r3, r3
 586 00c2 1370     		strb	r3, [r2]
 399:Generated_Source\PSoC5/ADC_DelSig.c ****     ADC_DelSig_STBY_PWRMGR_DSM_REG &= (uint8)~ADC_DelSig_STBY_PWR_DSM_EN;
 587              		.loc 1 399 0
 588 00c4 264A     		ldr	r2, .L15+28
 589 00c6 264B     		ldr	r3, .L15+28
 590 00c8 1B78     		ldrb	r3, [r3]
 591 00ca DBB2     		uxtb	r3, r3
 592 00cc 23F01003 		bic	r3, r3, #16
 593 00d0 DBB2     		uxtb	r3, r3
 594 00d2 1370     		strb	r3, [r2]
 400:Generated_Source\PSoC5/ADC_DelSig.c **** 
 401:Generated_Source\PSoC5/ADC_DelSig.c ****    /* Disable negative pumps for DSM  */
 402:Generated_Source\PSoC5/ADC_DelSig.c ****     ADC_DelSig_PUMP_CR1_REG &= (uint8)~(ADC_DelSig_PUMP_CR1_CLKSEL | ADC_DelSig_PUMP_CR1_FORCE );
 595              		.loc 1 402 0
 596 00d4 234A     		ldr	r2, .L15+32
 597 00d6 234B     		ldr	r3, .L15+32
 598 00d8 1B78     		ldrb	r3, [r3]
 599 00da DBB2     		uxtb	r3, r3
 600 00dc 23F00603 		bic	r3, r3, #6
 601 00e0 DBB2     		uxtb	r3, r3
 602 00e2 1370     		strb	r3, [r2]
 403:Generated_Source\PSoC5/ADC_DelSig.c **** 
 404:Generated_Source\PSoC5/ADC_DelSig.c ****     /* This is only valid if there is an internal clock */
 405:Generated_Source\PSoC5/ADC_DelSig.c ****     #if(ADC_DelSig_DEFAULT_INTERNAL_CLK)
 406:Generated_Source\PSoC5/ADC_DelSig.c ****         ADC_DelSig_PWRMGR_CLK_REG &= (uint8)~ADC_DelSig_ACT_PWR_CLK_EN;
 603              		.loc 1 406 0
 604 00e4 204A     		ldr	r2, .L15+36
 605 00e6 204B     		ldr	r3, .L15+36
 606 00e8 1B78     		ldrb	r3, [r3]
 607 00ea DBB2     		uxtb	r3, r3
 608 00ec 23F00103 		bic	r3, r3, #1
 609 00f0 DBB2     		uxtb	r3, r3
 610 00f2 1370     		strb	r3, [r2]
 407:Generated_Source\PSoC5/ADC_DelSig.c ****         ADC_DelSig_STBY_PWRMGR_CLK_REG &= (uint8)~ADC_DelSig_STBY_PWR_CLK_EN;
 611              		.loc 1 407 0
 612 00f4 1D4A     		ldr	r2, .L15+40
 613 00f6 1D4B     		ldr	r3, .L15+40
 614 00f8 1B78     		ldrb	r3, [r3]
 615 00fa DBB2     		uxtb	r3, r3
 616 00fc 23F00103 		bic	r3, r3, #1
 617 0100 DBB2     		uxtb	r3, r3
 618 0102 1370     		strb	r3, [r2]
 408:Generated_Source\PSoC5/ADC_DelSig.c ****     #endif /* ADC_DelSig_DEFAULT_INTERNAL_CLK */
ARM GAS  C:\Users\rcaravac\AppData\Local\Temp\ccauAhrg.s 			page 19


 409:Generated_Source\PSoC5/ADC_DelSig.c **** 
 410:Generated_Source\PSoC5/ADC_DelSig.c ****     /* Disable Modulator Chopping */
 411:Generated_Source\PSoC5/ADC_DelSig.c ****     ADC_DelSig_DSM_CR2_REG &= (uint8)~ADC_DelSig_DSM_MOD_CHOP_EN;
 619              		.loc 1 411 0
 620 0104 1A4A     		ldr	r2, .L15+44
 621 0106 1A4B     		ldr	r3, .L15+44
 622 0108 1B78     		ldrb	r3, [r3]
 623 010a DBB2     		uxtb	r3, r3
 624 010c 23F00803 		bic	r3, r3, #8
 625 0110 DBB2     		uxtb	r3, r3
 626 0112 1370     		strb	r3, [r2]
 412:Generated_Source\PSoC5/ADC_DelSig.c ****     /* Disable power to charge pump clock */
 413:Generated_Source\PSoC5/ADC_DelSig.c ****     ADC_DelSig_PWRMGR_CHARGE_PUMP_CLK_REG &= (uint8)~ADC_DelSig_ACT_PWR_CHARGE_PUMP_CLK_EN;
 627              		.loc 1 413 0
 628 0114 174A     		ldr	r2, .L15+48
 629 0116 174B     		ldr	r3, .L15+48
 630 0118 1B78     		ldrb	r3, [r3]
 631 011a DBB2     		uxtb	r3, r3
 632 011c 23F00103 		bic	r3, r3, #1
 633 0120 DBB2     		uxtb	r3, r3
 634 0122 1370     		strb	r3, [r2]
 414:Generated_Source\PSoC5/ADC_DelSig.c ****     ADC_DelSig_STBY_PWRMGR_CHARGE_PUMP_CLK_REG &= (uint8)~ADC_DelSig_STBY_PWR_CHARGE_PUMP_CLK_EN;
 635              		.loc 1 414 0
 636 0124 144A     		ldr	r2, .L15+52
 637 0126 144B     		ldr	r3, .L15+52
 638 0128 1B78     		ldrb	r3, [r3]
 639 012a DBB2     		uxtb	r3, r3
 640 012c 23F00103 		bic	r3, r3, #1
 641 0130 DBB2     		uxtb	r3, r3
 642 0132 1370     		strb	r3, [r2]
 415:Generated_Source\PSoC5/ADC_DelSig.c ****     
 416:Generated_Source\PSoC5/ADC_DelSig.c ****     CyExitCriticalSection(enableInterrupts);
 643              		.loc 1 416 0
 644 0134 FB79     		ldrb	r3, [r7, #7]	@ zero_extendqisi2
 645 0136 1846     		mov	r0, r3
 646 0138 FFF7FEFF 		bl	CyExitCriticalSection
 417:Generated_Source\PSoC5/ADC_DelSig.c **** }
 647              		.loc 1 417 0
 648 013c 00BF     		nop
 649 013e 0837     		adds	r7, r7, #8
 650              		.cfi_def_cfa_offset 8
 651 0140 BD46     		mov	sp, r7
 652              		.cfi_def_cfa_register 13
 653              		@ sp needed
 654 0142 80BD     		pop	{r7, pc}
 655              	.L16:
 656              		.align	2
 657              	.L15:
 658 0144 004E0040 		.word	1073761792
 659 0148 014E0040 		.word	1073761793
 660 014c F8460040 		.word	1073759992
 661 0150 F9460040 		.word	1073759993
 662 0154 91580040 		.word	1073764497
 663 0158 92580040 		.word	1073764498
 664 015c AA430040 		.word	1073759146
 665 0160 BA430040 		.word	1073759162
 666 0164 77580040 		.word	1073764471
ARM GAS  C:\Users\rcaravac\AppData\Local\Temp\ccauAhrg.s 			page 20


 667 0168 A1430040 		.word	1073759137
 668 016c B1430040 		.word	1073759153
 669 0170 82580040 		.word	1073764482
 670 0174 A2430040 		.word	1073759138
 671 0178 B2430040 		.word	1073759154
 672              		.cfi_endproc
 673              	.LFE3:
 674              		.size	ADC_DelSig_Stop, .-ADC_DelSig_Stop
 675              		.section	.text.ADC_DelSig_SetBufferGain,"ax",%progbits
 676              		.align	2
 677              		.global	ADC_DelSig_SetBufferGain
 678              		.thumb
 679              		.thumb_func
 680              		.type	ADC_DelSig_SetBufferGain, %function
 681              	ADC_DelSig_SetBufferGain:
 682              	.LFB4:
 418:Generated_Source\PSoC5/ADC_DelSig.c **** 
 419:Generated_Source\PSoC5/ADC_DelSig.c **** 
 420:Generated_Source\PSoC5/ADC_DelSig.c **** /*******************************************************************************
 421:Generated_Source\PSoC5/ADC_DelSig.c **** * Function Name: ADC_DelSig_SetBufferGain
 422:Generated_Source\PSoC5/ADC_DelSig.c **** ********************************************************************************
 423:Generated_Source\PSoC5/ADC_DelSig.c **** *
 424:Generated_Source\PSoC5/ADC_DelSig.c **** * Summary:
 425:Generated_Source\PSoC5/ADC_DelSig.c **** *  Sets input buffer gain.
 426:Generated_Source\PSoC5/ADC_DelSig.c **** *
 427:Generated_Source\PSoC5/ADC_DelSig.c **** * Parameters:
 428:Generated_Source\PSoC5/ADC_DelSig.c **** *  gain:  Two bit value to select a gain of 1, 2, 4, or 8.
 429:Generated_Source\PSoC5/ADC_DelSig.c **** *
 430:Generated_Source\PSoC5/ADC_DelSig.c **** * Return:
 431:Generated_Source\PSoC5/ADC_DelSig.c **** *  None
 432:Generated_Source\PSoC5/ADC_DelSig.c **** *
 433:Generated_Source\PSoC5/ADC_DelSig.c **** *******************************************************************************/
 434:Generated_Source\PSoC5/ADC_DelSig.c **** void ADC_DelSig_SetBufferGain(uint8 gain) 
 435:Generated_Source\PSoC5/ADC_DelSig.c **** {
 683              		.loc 1 435 0
 684              		.cfi_startproc
 685              		@ args = 0, pretend = 0, frame = 16
 686              		@ frame_needed = 1, uses_anonymous_args = 0
 687              		@ link register save eliminated.
 688 0000 80B4     		push	{r7}
 689              		.cfi_def_cfa_offset 4
 690              		.cfi_offset 7, -4
 691 0002 85B0     		sub	sp, sp, #20
 692              		.cfi_def_cfa_offset 24
 693 0004 00AF     		add	r7, sp, #0
 694              		.cfi_def_cfa_register 7
 695 0006 0346     		mov	r3, r0
 696 0008 FB71     		strb	r3, [r7, #7]
 436:Generated_Source\PSoC5/ADC_DelSig.c ****     uint8 tmpReg;
 437:Generated_Source\PSoC5/ADC_DelSig.c ****     tmpReg = ADC_DelSig_DSM_BUF1_REG & (uint8)~ADC_DelSig_DSM_GAIN_MASK;
 697              		.loc 1 437 0
 698 000a 0B4B     		ldr	r3, .L18
 699 000c 1B78     		ldrb	r3, [r3]
 700 000e DBB2     		uxtb	r3, r3
 701 0010 23F00C03 		bic	r3, r3, #12
 702 0014 FB73     		strb	r3, [r7, #15]
 438:Generated_Source\PSoC5/ADC_DelSig.c ****     tmpReg |= (uint8)(gain << ADC_DelSig_DSM_GAIN_SHIFT) & ADC_DelSig_DSM_GAIN_MASK;
ARM GAS  C:\Users\rcaravac\AppData\Local\Temp\ccauAhrg.s 			page 21


 703              		.loc 1 438 0
 704 0016 FB79     		ldrb	r3, [r7, #7]
 705 0018 9B00     		lsls	r3, r3, #2
 706 001a DBB2     		uxtb	r3, r3
 707 001c 03F00C03 		and	r3, r3, #12
 708 0020 DAB2     		uxtb	r2, r3
 709 0022 FB7B     		ldrb	r3, [r7, #15]
 710 0024 1343     		orrs	r3, r3, r2
 711 0026 FB73     		strb	r3, [r7, #15]
 439:Generated_Source\PSoC5/ADC_DelSig.c ****     ADC_DelSig_DSM_BUF1_REG = tmpReg;
 712              		.loc 1 439 0
 713 0028 034A     		ldr	r2, .L18
 714 002a FB7B     		ldrb	r3, [r7, #15]
 715 002c 1370     		strb	r3, [r2]
 440:Generated_Source\PSoC5/ADC_DelSig.c **** }
 716              		.loc 1 440 0
 717 002e 00BF     		nop
 718 0030 1437     		adds	r7, r7, #20
 719              		.cfi_def_cfa_offset 4
 720 0032 BD46     		mov	sp, r7
 721              		.cfi_def_cfa_register 13
 722              		@ sp needed
 723 0034 80BC     		pop	{r7}
 724              		.cfi_restore 7
 725              		.cfi_def_cfa_offset 0
 726 0036 7047     		bx	lr
 727              	.L19:
 728              		.align	2
 729              	.L18:
 730 0038 9B580040 		.word	1073764507
 731              		.cfi_endproc
 732              	.LFE4:
 733              		.size	ADC_DelSig_SetBufferGain, .-ADC_DelSig_SetBufferGain
 734              		.section	.text.ADC_DelSig_SetCoherency,"ax",%progbits
 735              		.align	2
 736              		.global	ADC_DelSig_SetCoherency
 737              		.thumb
 738              		.thumb_func
 739              		.type	ADC_DelSig_SetCoherency, %function
 740              	ADC_DelSig_SetCoherency:
 741              	.LFB5:
 441:Generated_Source\PSoC5/ADC_DelSig.c **** 
 442:Generated_Source\PSoC5/ADC_DelSig.c **** 
 443:Generated_Source\PSoC5/ADC_DelSig.c **** /*******************************************************************************
 444:Generated_Source\PSoC5/ADC_DelSig.c **** * Function Name: ADC_DelSig_SetCoherency
 445:Generated_Source\PSoC5/ADC_DelSig.c **** ********************************************************************************
 446:Generated_Source\PSoC5/ADC_DelSig.c **** *
 447:Generated_Source\PSoC5/ADC_DelSig.c **** * Summary:
 448:Generated_Source\PSoC5/ADC_DelSig.c **** *  This function allows the user to change which of the ADC's 3 word
 449:Generated_Source\PSoC5/ADC_DelSig.c **** *  result will trigger a coherency unlock. The ADC's result will not be
 450:Generated_Source\PSoC5/ADC_DelSig.c **** *  updated until the set byte is read either by the ADC or DMA. 
 451:Generated_Source\PSoC5/ADC_DelSig.c **** *  By default the LSB is the coherency byte for right alignment data format. 
 452:Generated_Source\PSoC5/ADC_DelSig.c **** *  The middle or high byte is set automatically depend on left alignment 
 453:Generated_Source\PSoC5/ADC_DelSig.c **** *  configuration for DMA data transfer.
 454:Generated_Source\PSoC5/ADC_DelSig.c **** *  If DMA or if a custom API requires different byte to be read the last,
 455:Generated_Source\PSoC5/ADC_DelSig.c **** *  this API should be used to set the last byte of the ADC result that is read. 
 456:Generated_Source\PSoC5/ADC_DelSig.c **** *  If a multibyte read is performed either by DMA or the ARM processor, the
ARM GAS  C:\Users\rcaravac\AppData\Local\Temp\ccauAhrg.s 			page 22


 457:Generated_Source\PSoC5/ADC_DelSig.c **** *  coherency can be set to any byte in the last word read.
 458:Generated_Source\PSoC5/ADC_DelSig.c **** *
 459:Generated_Source\PSoC5/ADC_DelSig.c **** * Parameters:
 460:Generated_Source\PSoC5/ADC_DelSig.c **** *  coherency:  Two bit value to set the coherency bit.
 461:Generated_Source\PSoC5/ADC_DelSig.c **** *           00-Coherency checking off
 462:Generated_Source\PSoC5/ADC_DelSig.c **** *           01-low byte is key byte
 463:Generated_Source\PSoC5/ADC_DelSig.c **** *           02-middle byte is the key byte
 464:Generated_Source\PSoC5/ADC_DelSig.c **** *           03-high byte is the key byte
 465:Generated_Source\PSoC5/ADC_DelSig.c **** *
 466:Generated_Source\PSoC5/ADC_DelSig.c **** * Return:
 467:Generated_Source\PSoC5/ADC_DelSig.c **** *  None
 468:Generated_Source\PSoC5/ADC_DelSig.c **** *
 469:Generated_Source\PSoC5/ADC_DelSig.c **** *******************************************************************************/
 470:Generated_Source\PSoC5/ADC_DelSig.c **** void ADC_DelSig_SetCoherency(uint8 coherency) 
 471:Generated_Source\PSoC5/ADC_DelSig.c **** {
 742              		.loc 1 471 0
 743              		.cfi_startproc
 744              		@ args = 0, pretend = 0, frame = 16
 745              		@ frame_needed = 1, uses_anonymous_args = 0
 746              		@ link register save eliminated.
 747 0000 80B4     		push	{r7}
 748              		.cfi_def_cfa_offset 4
 749              		.cfi_offset 7, -4
 750 0002 85B0     		sub	sp, sp, #20
 751              		.cfi_def_cfa_offset 24
 752 0004 00AF     		add	r7, sp, #0
 753              		.cfi_def_cfa_register 7
 754 0006 0346     		mov	r3, r0
 755 0008 FB71     		strb	r3, [r7, #7]
 472:Generated_Source\PSoC5/ADC_DelSig.c ****     uint8 tmpReg;
 473:Generated_Source\PSoC5/ADC_DelSig.c **** 
 474:Generated_Source\PSoC5/ADC_DelSig.c ****     tmpReg = ADC_DelSig_DEC_COHER_REG & (uint8)~ADC_DelSig_DEC_SAMP_KEY_MASK;
 756              		.loc 1 474 0
 757 000a 0A4B     		ldr	r3, .L21
 758 000c 1B78     		ldrb	r3, [r3]
 759 000e DBB2     		uxtb	r3, r3
 760 0010 23F00303 		bic	r3, r3, #3
 761 0014 FB73     		strb	r3, [r7, #15]
 475:Generated_Source\PSoC5/ADC_DelSig.c ****     tmpReg |= coherency & ADC_DelSig_DEC_SAMP_KEY_MASK;
 762              		.loc 1 475 0
 763 0016 FB79     		ldrb	r3, [r7, #7]
 764 0018 03F00303 		and	r3, r3, #3
 765 001c DAB2     		uxtb	r2, r3
 766 001e FB7B     		ldrb	r3, [r7, #15]
 767 0020 1343     		orrs	r3, r3, r2
 768 0022 FB73     		strb	r3, [r7, #15]
 476:Generated_Source\PSoC5/ADC_DelSig.c ****     ADC_DelSig_DEC_COHER_REG = tmpReg;
 769              		.loc 1 476 0
 770 0024 034A     		ldr	r2, .L21
 771 0026 FB7B     		ldrb	r3, [r7, #15]
 772 0028 1370     		strb	r3, [r2]
 477:Generated_Source\PSoC5/ADC_DelSig.c **** }
 773              		.loc 1 477 0
 774 002a 00BF     		nop
 775 002c 1437     		adds	r7, r7, #20
 776              		.cfi_def_cfa_offset 4
 777 002e BD46     		mov	sp, r7
ARM GAS  C:\Users\rcaravac\AppData\Local\Temp\ccauAhrg.s 			page 23


 778              		.cfi_def_cfa_register 13
 779              		@ sp needed
 780 0030 80BC     		pop	{r7}
 781              		.cfi_restore 7
 782              		.cfi_def_cfa_offset 0
 783 0032 7047     		bx	lr
 784              	.L22:
 785              		.align	2
 786              	.L21:
 787 0034 144E0040 		.word	1073761812
 788              		.cfi_endproc
 789              	.LFE5:
 790              		.size	ADC_DelSig_SetCoherency, .-ADC_DelSig_SetCoherency
 791              		.global	__aeabi_ui2f
 792              		.global	__aeabi_fdiv
 793              		.global	__aeabi_fmul
 794              		.global	__aeabi_f2d
 795              		.global	__aeabi_dcmpgt
 796              		.global	__aeabi_f2uiz
 797              		.section	.text.ADC_DelSig_SetGCOR,"ax",%progbits
 798              		.align	2
 799              		.global	ADC_DelSig_SetGCOR
 800              		.thumb
 801              		.thumb_func
 802              		.type	ADC_DelSig_SetGCOR, %function
 803              	ADC_DelSig_SetGCOR:
 804              	.LFB6:
 478:Generated_Source\PSoC5/ADC_DelSig.c **** 
 479:Generated_Source\PSoC5/ADC_DelSig.c **** 
 480:Generated_Source\PSoC5/ADC_DelSig.c **** /*******************************************************************************
 481:Generated_Source\PSoC5/ADC_DelSig.c **** * Function Name: ADC_DelSig_SetGCOR
 482:Generated_Source\PSoC5/ADC_DelSig.c **** ********************************************************************************
 483:Generated_Source\PSoC5/ADC_DelSig.c **** *
 484:Generated_Source\PSoC5/ADC_DelSig.c **** * Summary:
 485:Generated_Source\PSoC5/ADC_DelSig.c **** *  Calculates a new GCOR value and writes it into the GCOR register. 
 486:Generated_Source\PSoC5/ADC_DelSig.c **** *  The GCOR value is a 16-bit value that represents a gain of 0 to 2. 
 487:Generated_Source\PSoC5/ADC_DelSig.c **** *  The ADC result is multiplied by this value before it is placed in the ADC 
 488:Generated_Source\PSoC5/ADC_DelSig.c **** *  output registers. The numerical format for the GCOR value is:
 489:Generated_Source\PSoC5/ADC_DelSig.c **** *  0x0000 -> 0.000
 490:Generated_Source\PSoC5/ADC_DelSig.c **** *  0x8000 -> 1.000
 491:Generated_Source\PSoC5/ADC_DelSig.c **** *  0xFFFF -> 1.99997
 492:Generated_Source\PSoC5/ADC_DelSig.c **** *  When executing the function, the old GCOR value is multiplied by
 493:Generated_Source\PSoC5/ADC_DelSig.c **** *  gainAdjust and reloaded into the GCOR register.
 494:Generated_Source\PSoC5/ADC_DelSig.c **** *
 495:Generated_Source\PSoC5/ADC_DelSig.c **** * Parameters:
 496:Generated_Source\PSoC5/ADC_DelSig.c **** *  gainAdjust:  floating point value to set GCOR registers.
 497:Generated_Source\PSoC5/ADC_DelSig.c **** *
 498:Generated_Source\PSoC5/ADC_DelSig.c **** * Return:
 499:Generated_Source\PSoC5/ADC_DelSig.c **** *  uint8: 0 - if GCOR value is within the expected range.
 500:Generated_Source\PSoC5/ADC_DelSig.c **** *         1 - the correction value is outside GCOR value range of
 501:Generated_Source\PSoC5/ADC_DelSig.c **** *             0.00 to 1.9999.
 502:Generated_Source\PSoC5/ADC_DelSig.c **** *
 503:Generated_Source\PSoC5/ADC_DelSig.c **** * Side Effects:  The GVAL register is set to the amount of valid bits in the
 504:Generated_Source\PSoC5/ADC_DelSig.c **** *                GCOR  register minus one. If GVAL is 15 (0x0F), all 16 bits
 505:Generated_Source\PSoC5/ADC_DelSig.c **** *                of the GCOR registers will be valid. If for example GVAL is
 506:Generated_Source\PSoC5/ADC_DelSig.c **** *                11 (0x0B) only 12 bits will be valid. The least 4 bits will
 507:Generated_Source\PSoC5/ADC_DelSig.c **** *                be lost when the GCOR value is shifted 4 places to the right.
ARM GAS  C:\Users\rcaravac\AppData\Local\Temp\ccauAhrg.s 			page 24


 508:Generated_Source\PSoC5/ADC_DelSig.c **** *
 509:Generated_Source\PSoC5/ADC_DelSig.c **** ******************************************************************************/
 510:Generated_Source\PSoC5/ADC_DelSig.c **** uint8 ADC_DelSig_SetGCOR(float32 gainAdjust) 
 511:Generated_Source\PSoC5/ADC_DelSig.c **** {
 805              		.loc 1 511 0
 806              		.cfi_startproc
 807              		@ args = 0, pretend = 0, frame = 16
 808              		@ frame_needed = 1, uses_anonymous_args = 0
 809 0000 80B5     		push	{r7, lr}
 810              		.cfi_def_cfa_offset 8
 811              		.cfi_offset 7, -8
 812              		.cfi_offset 14, -4
 813 0002 84B0     		sub	sp, sp, #16
 814              		.cfi_def_cfa_offset 24
 815 0004 00AF     		add	r7, sp, #0
 816              		.cfi_def_cfa_register 7
 817 0006 7860     		str	r0, [r7, #4]	@ float
 512:Generated_Source\PSoC5/ADC_DelSig.c ****     uint16 tmpReg;
 513:Generated_Source\PSoC5/ADC_DelSig.c ****     uint8 status;
 514:Generated_Source\PSoC5/ADC_DelSig.c ****     float32 tmpValue;
 515:Generated_Source\PSoC5/ADC_DelSig.c **** 
 516:Generated_Source\PSoC5/ADC_DelSig.c ****     tmpReg = ADC_DelSig_gcor[ADC_DelSig_Config - 1u].gcor;
 818              		.loc 1 516 0
 819 0008 254B     		ldr	r3, .L30+8
 820 000a 1B78     		ldrb	r3, [r3]
 821 000c DBB2     		uxtb	r3, r3
 822 000e 013B     		subs	r3, r3, #1
 823 0010 244A     		ldr	r2, .L30+12
 824 0012 32F82330 		ldrh	r3, [r2, r3, lsl #2]	@ movhi
 825 0016 BB81     		strh	r3, [r7, #12]	@ movhi
 517:Generated_Source\PSoC5/ADC_DelSig.c ****     tmpValue = ((float32)tmpReg / (float32)ADC_DelSig_IDEAL_GAIN_CONST);
 826              		.loc 1 517 0
 827 0018 BB89     		ldrh	r3, [r7, #12]
 828 001a 1846     		mov	r0, r3
 829 001c FFF7FEFF 		bl	__aeabi_ui2f
 830 0020 0346     		mov	r3, r0
 831 0022 4FF08E41 		mov	r1, #1191182336
 832 0026 1846     		mov	r0, r3
 833 0028 FFF7FEFF 		bl	__aeabi_fdiv
 834 002c 0346     		mov	r3, r0
 835 002e BB60     		str	r3, [r7, #8]	@ float
 518:Generated_Source\PSoC5/ADC_DelSig.c ****     tmpValue = tmpValue * gainAdjust;
 836              		.loc 1 518 0
 837 0030 7968     		ldr	r1, [r7, #4]	@ float
 838 0032 B868     		ldr	r0, [r7, #8]	@ float
 839 0034 FFF7FEFF 		bl	__aeabi_fmul
 840 0038 0346     		mov	r3, r0
 841 003a BB60     		str	r3, [r7, #8]	@ float
 519:Generated_Source\PSoC5/ADC_DelSig.c **** 
 520:Generated_Source\PSoC5/ADC_DelSig.c ****     if (tmpValue > 1.9999)
 842              		.loc 1 520 0
 843 003c B868     		ldr	r0, [r7, #8]	@ float
 844 003e FFF7FEFF 		bl	__aeabi_f2d
 845 0042 15A3     		adr	r3, .L30
 846 0044 D3E90023 		ldrd	r2, [r3]
 847 0048 FFF7FEFF 		bl	__aeabi_dcmpgt
 848 004c 0346     		mov	r3, r0
ARM GAS  C:\Users\rcaravac\AppData\Local\Temp\ccauAhrg.s 			page 25


 849 004e 002B     		cmp	r3, #0
 850 0050 02D0     		beq	.L29
 521:Generated_Source\PSoC5/ADC_DelSig.c ****     {
 522:Generated_Source\PSoC5/ADC_DelSig.c ****         status = 1u;
 851              		.loc 1 522 0
 852 0052 0123     		movs	r3, #1
 853 0054 FB73     		strb	r3, [r7, #15]
 854 0056 18E0     		b	.L26
 855              	.L29:
 523:Generated_Source\PSoC5/ADC_DelSig.c ****     }
 524:Generated_Source\PSoC5/ADC_DelSig.c ****     else
 525:Generated_Source\PSoC5/ADC_DelSig.c ****     {
 526:Generated_Source\PSoC5/ADC_DelSig.c ****         tmpValue *= (float32)ADC_DelSig_IDEAL_GAIN_CONST;
 856              		.loc 1 526 0
 857 0058 4FF08E41 		mov	r1, #1191182336
 858 005c B868     		ldr	r0, [r7, #8]	@ float
 859 005e FFF7FEFF 		bl	__aeabi_fmul
 860 0062 0346     		mov	r3, r0
 861 0064 BB60     		str	r3, [r7, #8]	@ float
 527:Generated_Source\PSoC5/ADC_DelSig.c **** 		tmpReg = (uint16)tmpValue;
 862              		.loc 1 527 0
 863 0066 B868     		ldr	r0, [r7, #8]	@ float
 864 0068 FFF7FEFF 		bl	__aeabi_f2uiz
 865 006c 0346     		mov	r3, r0
 866 006e BB81     		strh	r3, [r7, #12]	@ movhi
 528:Generated_Source\PSoC5/ADC_DelSig.c ****         CY_SET_REG16(ADC_DelSig_DEC_GCOR_16B_PTR, tmpReg);
 867              		.loc 1 528 0
 868 0070 0D4A     		ldr	r2, .L30+16
 869 0072 BB89     		ldrh	r3, [r7, #12]	@ movhi
 870 0074 1380     		strh	r3, [r2]	@ movhi
 529:Generated_Source\PSoC5/ADC_DelSig.c ****         /* Update gain array to be used by SelectConfiguration() API */
 530:Generated_Source\PSoC5/ADC_DelSig.c ****        ADC_DelSig_gcor[ADC_DelSig_Config - 1u].gcor = tmpReg;
 871              		.loc 1 530 0
 872 0076 0A4B     		ldr	r3, .L30+8
 873 0078 1B78     		ldrb	r3, [r3]
 874 007a DBB2     		uxtb	r3, r3
 875 007c 013B     		subs	r3, r3, #1
 876 007e 0949     		ldr	r1, .L30+12
 877 0080 BA89     		ldrh	r2, [r7, #12]	@ movhi
 878 0082 21F82320 		strh	r2, [r1, r3, lsl #2]	@ movhi
 531:Generated_Source\PSoC5/ADC_DelSig.c **** 
 532:Generated_Source\PSoC5/ADC_DelSig.c ****         status = 0u;
 879              		.loc 1 532 0
 880 0086 0023     		movs	r3, #0
 881 0088 FB73     		strb	r3, [r7, #15]
 882              	.L26:
 533:Generated_Source\PSoC5/ADC_DelSig.c **** 
 534:Generated_Source\PSoC5/ADC_DelSig.c ****     }
 535:Generated_Source\PSoC5/ADC_DelSig.c ****     return(status);
 883              		.loc 1 535 0
 884 008a FB7B     		ldrb	r3, [r7, #15]	@ zero_extendqisi2
 536:Generated_Source\PSoC5/ADC_DelSig.c **** }
 885              		.loc 1 536 0
 886 008c 1846     		mov	r0, r3
 887 008e 1037     		adds	r7, r7, #16
 888              		.cfi_def_cfa_offset 8
 889 0090 BD46     		mov	sp, r7
ARM GAS  C:\Users\rcaravac\AppData\Local\Temp\ccauAhrg.s 			page 26


 890              		.cfi_def_cfa_register 13
 891              		@ sp needed
 892 0092 80BD     		pop	{r7, pc}
 893              	.L31:
 894 0094 AFF30080 		.align	3
 895              	.L30:
 896 0098 8F537424 		.word	611603343
 897 009c 97FFFF3F 		.word	1073741719
 898 00a0 00000000 		.word	ADC_DelSig_Config
 899 00a4 08000000 		.word	ADC_DelSig_gcor
 900 00a8 0C4E0040 		.word	1073761804
 901              		.cfi_endproc
 902              	.LFE6:
 903              		.size	ADC_DelSig_SetGCOR, .-ADC_DelSig_SetGCOR
 904              		.section	.text.ADC_DelSig_ReadGCOR,"ax",%progbits
 905              		.align	2
 906              		.global	ADC_DelSig_ReadGCOR
 907              		.thumb
 908              		.thumb_func
 909              		.type	ADC_DelSig_ReadGCOR, %function
 910              	ADC_DelSig_ReadGCOR:
 911              	.LFB7:
 537:Generated_Source\PSoC5/ADC_DelSig.c **** 
 538:Generated_Source\PSoC5/ADC_DelSig.c **** 
 539:Generated_Source\PSoC5/ADC_DelSig.c **** /******************************************************************************
 540:Generated_Source\PSoC5/ADC_DelSig.c **** * Function Name: ADC_DelSig_ReadGCOR
 541:Generated_Source\PSoC5/ADC_DelSig.c **** *******************************************************************************
 542:Generated_Source\PSoC5/ADC_DelSig.c **** *
 543:Generated_Source\PSoC5/ADC_DelSig.c **** * Summary:
 544:Generated_Source\PSoC5/ADC_DelSig.c **** *  This API returns the current GCOR register value, normalized based on the
 545:Generated_Source\PSoC5/ADC_DelSig.c **** *  GVAL register settings.
 546:Generated_Source\PSoC5/ADC_DelSig.c **** *  For example, if the GCOR value is 0x0812 and the GVAL register is set to 
 547:Generated_Source\PSoC5/ADC_DelSig.c **** *  11 (0x0B) then the returned value will be shifted by for bits to the left.
 548:Generated_Source\PSoC5/ADC_DelSig.c **** *  (Actual GCOR value = 0x0812, returned value = 0x8120)
 549:Generated_Source\PSoC5/ADC_DelSig.c **** *
 550:Generated_Source\PSoC5/ADC_DelSig.c **** * Parameters:
 551:Generated_Source\PSoC5/ADC_DelSig.c **** *  None
 552:Generated_Source\PSoC5/ADC_DelSig.c **** *
 553:Generated_Source\PSoC5/ADC_DelSig.c **** * Return:
 554:Generated_Source\PSoC5/ADC_DelSig.c **** *  uint16:  Normalized GCOR value.
 555:Generated_Source\PSoC5/ADC_DelSig.c **** *
 556:Generated_Source\PSoC5/ADC_DelSig.c **** *******************************************************************************/
 557:Generated_Source\PSoC5/ADC_DelSig.c **** uint16 ADC_DelSig_ReadGCOR(void) 
 558:Generated_Source\PSoC5/ADC_DelSig.c **** {
 912              		.loc 1 558 0
 913              		.cfi_startproc
 914              		@ args = 0, pretend = 0, frame = 8
 915              		@ frame_needed = 1, uses_anonymous_args = 0
 916              		@ link register save eliminated.
 917 0000 80B4     		push	{r7}
 918              		.cfi_def_cfa_offset 4
 919              		.cfi_offset 7, -4
 920 0002 83B0     		sub	sp, sp, #12
 921              		.cfi_def_cfa_offset 16
 922 0004 00AF     		add	r7, sp, #0
 923              		.cfi_def_cfa_register 7
 559:Generated_Source\PSoC5/ADC_DelSig.c ****     uint8 gValue;
ARM GAS  C:\Users\rcaravac\AppData\Local\Temp\ccauAhrg.s 			page 27


 560:Generated_Source\PSoC5/ADC_DelSig.c ****     uint16 gcorValue;
 561:Generated_Source\PSoC5/ADC_DelSig.c **** 
 562:Generated_Source\PSoC5/ADC_DelSig.c ****     gValue = ADC_DelSig_DEC_GVAL_REG;
 924              		.loc 1 562 0
 925 0006 0B4B     		ldr	r3, .L35
 926 0008 1B78     		ldrb	r3, [r3]
 927 000a 7B71     		strb	r3, [r7, #5]
 563:Generated_Source\PSoC5/ADC_DelSig.c ****     gcorValue = CY_GET_REG16(ADC_DelSig_DEC_GCOR_16B_PTR);
 928              		.loc 1 563 0
 929 000c 0A4B     		ldr	r3, .L35+4
 930 000e 1B88     		ldrh	r3, [r3]	@ movhi
 931 0010 FB80     		strh	r3, [r7, #6]	@ movhi
 564:Generated_Source\PSoC5/ADC_DelSig.c **** 
 565:Generated_Source\PSoC5/ADC_DelSig.c ****     if (gValue < ADC_DelSig_MAX_GVAL)
 932              		.loc 1 565 0
 933 0012 7B79     		ldrb	r3, [r7, #5]	@ zero_extendqisi2
 934 0014 0E2B     		cmp	r3, #14
 935 0016 06D8     		bhi	.L33
 566:Generated_Source\PSoC5/ADC_DelSig.c ****     {
 567:Generated_Source\PSoC5/ADC_DelSig.c ****         gcorValue <<= ADC_DelSig_MAX_GVAL - gValue;
 936              		.loc 1 567 0
 937 0018 FA88     		ldrh	r2, [r7, #6]
 938 001a 7B79     		ldrb	r3, [r7, #5]	@ zero_extendqisi2
 939 001c C3F10F03 		rsb	r3, r3, #15
 940 0020 02FA03F3 		lsl	r3, r2, r3
 941 0024 FB80     		strh	r3, [r7, #6]	@ movhi
 942              	.L33:
 568:Generated_Source\PSoC5/ADC_DelSig.c ****     }
 569:Generated_Source\PSoC5/ADC_DelSig.c **** 
 570:Generated_Source\PSoC5/ADC_DelSig.c ****     return gcorValue;
 943              		.loc 1 570 0
 944 0026 FB88     		ldrh	r3, [r7, #6]
 571:Generated_Source\PSoC5/ADC_DelSig.c **** }
 945              		.loc 1 571 0
 946 0028 1846     		mov	r0, r3
 947 002a 0C37     		adds	r7, r7, #12
 948              		.cfi_def_cfa_offset 4
 949 002c BD46     		mov	sp, r7
 950              		.cfi_def_cfa_register 13
 951              		@ sp needed
 952 002e 80BC     		pop	{r7}
 953              		.cfi_restore 7
 954              		.cfi_def_cfa_offset 0
 955 0030 7047     		bx	lr
 956              	.L36:
 957 0032 00BF     		.align	2
 958              	.L35:
 959 0034 0E4E0040 		.word	1073761806
 960 0038 0C4E0040 		.word	1073761804
 961              		.cfi_endproc
 962              	.LFE7:
 963              		.size	ADC_DelSig_ReadGCOR, .-ADC_DelSig_ReadGCOR
 964              		.section	.text.ADC_DelSig_StartConvert,"ax",%progbits
 965              		.align	2
 966              		.global	ADC_DelSig_StartConvert
 967              		.thumb
 968              		.thumb_func
ARM GAS  C:\Users\rcaravac\AppData\Local\Temp\ccauAhrg.s 			page 28


 969              		.type	ADC_DelSig_StartConvert, %function
 970              	ADC_DelSig_StartConvert:
 971              	.LFB8:
 572:Generated_Source\PSoC5/ADC_DelSig.c **** 
 573:Generated_Source\PSoC5/ADC_DelSig.c **** 
 574:Generated_Source\PSoC5/ADC_DelSig.c **** /*******************************************************************************
 575:Generated_Source\PSoC5/ADC_DelSig.c **** * Function Name: ADC_DelSig_StartConvert
 576:Generated_Source\PSoC5/ADC_DelSig.c **** ********************************************************************************
 577:Generated_Source\PSoC5/ADC_DelSig.c **** *
 578:Generated_Source\PSoC5/ADC_DelSig.c **** * Summary:
 579:Generated_Source\PSoC5/ADC_DelSig.c **** *  Forces the ADC to initiate a conversion. If in the "Single Sample"
 580:Generated_Source\PSoC5/ADC_DelSig.c **** *  mode, one conversion will be performed then the ADC will halt. If in
 581:Generated_Source\PSoC5/ADC_DelSig.c **** *  one of the other three conversion modes, the ADC will run
 582:Generated_Source\PSoC5/ADC_DelSig.c **** *  continuously until the ADC_Stop() or ADC_StopConvert() is called.
 583:Generated_Source\PSoC5/ADC_DelSig.c **** *
 584:Generated_Source\PSoC5/ADC_DelSig.c **** * Parameters:
 585:Generated_Source\PSoC5/ADC_DelSig.c **** *  None
 586:Generated_Source\PSoC5/ADC_DelSig.c **** *
 587:Generated_Source\PSoC5/ADC_DelSig.c **** * Return:
 588:Generated_Source\PSoC5/ADC_DelSig.c **** *  None
 589:Generated_Source\PSoC5/ADC_DelSig.c **** *
 590:Generated_Source\PSoC5/ADC_DelSig.c **** *******************************************************************************/
 591:Generated_Source\PSoC5/ADC_DelSig.c **** void ADC_DelSig_StartConvert(void) 
 592:Generated_Source\PSoC5/ADC_DelSig.c **** {
 972              		.loc 1 592 0
 973              		.cfi_startproc
 974              		@ args = 0, pretend = 0, frame = 0
 975              		@ frame_needed = 1, uses_anonymous_args = 0
 976              		@ link register save eliminated.
 977 0000 80B4     		push	{r7}
 978              		.cfi_def_cfa_offset 4
 979              		.cfi_offset 7, -4
 980 0002 00AF     		add	r7, sp, #0
 981              		.cfi_def_cfa_register 7
 593:Generated_Source\PSoC5/ADC_DelSig.c ****     /* Start the conversion */
 594:Generated_Source\PSoC5/ADC_DelSig.c ****     ADC_DelSig_DEC_CR_REG |= ADC_DelSig_DEC_START_CONV;
 982              		.loc 1 594 0
 983 0004 054A     		ldr	r2, .L38
 984 0006 054B     		ldr	r3, .L38
 985 0008 1B78     		ldrb	r3, [r3]
 986 000a DBB2     		uxtb	r3, r3
 987 000c 43F00103 		orr	r3, r3, #1
 988 0010 DBB2     		uxtb	r3, r3
 989 0012 1370     		strb	r3, [r2]
 595:Generated_Source\PSoC5/ADC_DelSig.c **** }
 990              		.loc 1 595 0
 991 0014 00BF     		nop
 992 0016 BD46     		mov	sp, r7
 993              		.cfi_def_cfa_register 13
 994              		@ sp needed
 995 0018 80BC     		pop	{r7}
 996              		.cfi_restore 7
 997              		.cfi_def_cfa_offset 0
 998 001a 7047     		bx	lr
 999              	.L39:
 1000              		.align	2
 1001              	.L38:
ARM GAS  C:\Users\rcaravac\AppData\Local\Temp\ccauAhrg.s 			page 29


 1002 001c 004E0040 		.word	1073761792
 1003              		.cfi_endproc
 1004              	.LFE8:
 1005              		.size	ADC_DelSig_StartConvert, .-ADC_DelSig_StartConvert
 1006              		.section	.text.ADC_DelSig_StopConvert,"ax",%progbits
 1007              		.align	2
 1008              		.global	ADC_DelSig_StopConvert
 1009              		.thumb
 1010              		.thumb_func
 1011              		.type	ADC_DelSig_StopConvert, %function
 1012              	ADC_DelSig_StopConvert:
 1013              	.LFB9:
 596:Generated_Source\PSoC5/ADC_DelSig.c **** 
 597:Generated_Source\PSoC5/ADC_DelSig.c **** 
 598:Generated_Source\PSoC5/ADC_DelSig.c **** /*******************************************************************************
 599:Generated_Source\PSoC5/ADC_DelSig.c **** * Function Name: ADC_DelSig_StopConvert
 600:Generated_Source\PSoC5/ADC_DelSig.c **** ********************************************************************************
 601:Generated_Source\PSoC5/ADC_DelSig.c **** *
 602:Generated_Source\PSoC5/ADC_DelSig.c **** * Summary:
 603:Generated_Source\PSoC5/ADC_DelSig.c **** *  Forces the ADC to stop all conversions. If the ADC is in the middle of a
 604:Generated_Source\PSoC5/ADC_DelSig.c **** *  conversion, the ADC will be reset and not provide a result for that partial
 605:Generated_Source\PSoC5/ADC_DelSig.c **** *  conversion.
 606:Generated_Source\PSoC5/ADC_DelSig.c **** *
 607:Generated_Source\PSoC5/ADC_DelSig.c **** * Parameters:
 608:Generated_Source\PSoC5/ADC_DelSig.c **** *  None
 609:Generated_Source\PSoC5/ADC_DelSig.c **** *
 610:Generated_Source\PSoC5/ADC_DelSig.c **** * Return:
 611:Generated_Source\PSoC5/ADC_DelSig.c **** *  None
 612:Generated_Source\PSoC5/ADC_DelSig.c **** *
 613:Generated_Source\PSoC5/ADC_DelSig.c **** *******************************************************************************/
 614:Generated_Source\PSoC5/ADC_DelSig.c **** void ADC_DelSig_StopConvert(void) 
 615:Generated_Source\PSoC5/ADC_DelSig.c **** {
 1014              		.loc 1 615 0
 1015              		.cfi_startproc
 1016              		@ args = 0, pretend = 0, frame = 0
 1017              		@ frame_needed = 1, uses_anonymous_args = 0
 1018              		@ link register save eliminated.
 1019 0000 80B4     		push	{r7}
 1020              		.cfi_def_cfa_offset 4
 1021              		.cfi_offset 7, -4
 1022 0002 00AF     		add	r7, sp, #0
 1023              		.cfi_def_cfa_register 7
 616:Generated_Source\PSoC5/ADC_DelSig.c ****     /* Stop all conversions */
 617:Generated_Source\PSoC5/ADC_DelSig.c ****     ADC_DelSig_DEC_CR_REG &= (uint8)~ADC_DelSig_DEC_START_CONV;
 1024              		.loc 1 617 0
 1025 0004 054A     		ldr	r2, .L41
 1026 0006 054B     		ldr	r3, .L41
 1027 0008 1B78     		ldrb	r3, [r3]
 1028 000a DBB2     		uxtb	r3, r3
 1029 000c 23F00103 		bic	r3, r3, #1
 1030 0010 DBB2     		uxtb	r3, r3
 1031 0012 1370     		strb	r3, [r2]
 618:Generated_Source\PSoC5/ADC_DelSig.c **** }
 1032              		.loc 1 618 0
 1033 0014 00BF     		nop
 1034 0016 BD46     		mov	sp, r7
 1035              		.cfi_def_cfa_register 13
ARM GAS  C:\Users\rcaravac\AppData\Local\Temp\ccauAhrg.s 			page 30


 1036              		@ sp needed
 1037 0018 80BC     		pop	{r7}
 1038              		.cfi_restore 7
 1039              		.cfi_def_cfa_offset 0
 1040 001a 7047     		bx	lr
 1041              	.L42:
 1042              		.align	2
 1043              	.L41:
 1044 001c 004E0040 		.word	1073761792
 1045              		.cfi_endproc
 1046              	.LFE9:
 1047              		.size	ADC_DelSig_StopConvert, .-ADC_DelSig_StopConvert
 1048              		.section	.text.ADC_DelSig_IsEndConversion,"ax",%progbits
 1049              		.align	2
 1050              		.global	ADC_DelSig_IsEndConversion
 1051              		.thumb
 1052              		.thumb_func
 1053              		.type	ADC_DelSig_IsEndConversion, %function
 1054              	ADC_DelSig_IsEndConversion:
 1055              	.LFB10:
 619:Generated_Source\PSoC5/ADC_DelSig.c **** 
 620:Generated_Source\PSoC5/ADC_DelSig.c **** 
 621:Generated_Source\PSoC5/ADC_DelSig.c **** /*******************************************************************************
 622:Generated_Source\PSoC5/ADC_DelSig.c **** * Function Name: ADC_DelSig_IsEndConversion
 623:Generated_Source\PSoC5/ADC_DelSig.c **** ********************************************************************************
 624:Generated_Source\PSoC5/ADC_DelSig.c **** *
 625:Generated_Source\PSoC5/ADC_DelSig.c **** * Summary:
 626:Generated_Source\PSoC5/ADC_DelSig.c **** *  Checks the status that the most recently started conversion has completed.
 627:Generated_Source\PSoC5/ADC_DelSig.c **** *  The status is cleared by any of ADC_GetResult8(), ADC_GetResult16() or 
 628:Generated_Source\PSoC5/ADC_DelSig.c **** *  ADC_GetResult32() API.
 629:Generated_Source\PSoC5/ADC_DelSig.c **** *  This function provides the programmer with two options. In one mode this 
 630:Generated_Source\PSoC5/ADC_DelSig.c **** *  function immediately returns with the conversion status. In the other mode,
 631:Generated_Source\PSoC5/ADC_DelSig.c **** *  the function does not return (blocking) until the conversion has completed.
 632:Generated_Source\PSoC5/ADC_DelSig.c **** *
 633:Generated_Source\PSoC5/ADC_DelSig.c **** * Parameters:
 634:Generated_Source\PSoC5/ADC_DelSig.c **** *  retMode: Check conversion return mode. See the following table for options.
 635:Generated_Source\PSoC5/ADC_DelSig.c **** *   ADC_DelSig_RETURN_STATUS -   Immediately returns conversion result
 636:Generated_Source\PSoC5/ADC_DelSig.c **** *                                      status.
 637:Generated_Source\PSoC5/ADC_DelSig.c **** *   ADC_DelSig_WAIT_FOR_RESULT - Does not return until ADC conversion
 638:Generated_Source\PSoC5/ADC_DelSig.c **** *                                      is complete.
 639:Generated_Source\PSoC5/ADC_DelSig.c **** *
 640:Generated_Source\PSoC5/ADC_DelSig.c **** * Return:
 641:Generated_Source\PSoC5/ADC_DelSig.c **** *  If a nonzero value is returned, the last conversion has completed.
 642:Generated_Source\PSoC5/ADC_DelSig.c **** *  If the returned value is zero, the ADC is still calculating the last result.
 643:Generated_Source\PSoC5/ADC_DelSig.c **** *
 644:Generated_Source\PSoC5/ADC_DelSig.c **** * Global variables:
 645:Generated_Source\PSoC5/ADC_DelSig.c **** *  ADC_DelSig_convDone:  Used to check whether conversion is complete
 646:Generated_Source\PSoC5/ADC_DelSig.c **** *  or not for single sample mode with resolution is above 16
 647:Generated_Source\PSoC5/ADC_DelSig.c **** *
 648:Generated_Source\PSoC5/ADC_DelSig.c **** *******************************************************************************/
 649:Generated_Source\PSoC5/ADC_DelSig.c **** uint8 ADC_DelSig_IsEndConversion(uint8 retMode) 
 650:Generated_Source\PSoC5/ADC_DelSig.c **** {
 1056              		.loc 1 650 0
 1057              		.cfi_startproc
 1058              		@ args = 0, pretend = 0, frame = 16
 1059              		@ frame_needed = 1, uses_anonymous_args = 0
 1060              		@ link register save eliminated.
ARM GAS  C:\Users\rcaravac\AppData\Local\Temp\ccauAhrg.s 			page 31


 1061 0000 80B4     		push	{r7}
 1062              		.cfi_def_cfa_offset 4
 1063              		.cfi_offset 7, -4
 1064 0002 85B0     		sub	sp, sp, #20
 1065              		.cfi_def_cfa_offset 24
 1066 0004 00AF     		add	r7, sp, #0
 1067              		.cfi_def_cfa_register 7
 1068 0006 0346     		mov	r3, r0
 1069 0008 FB71     		strb	r3, [r7, #7]
 1070              	.L47:
 651:Generated_Source\PSoC5/ADC_DelSig.c ****     uint8 status;
 652:Generated_Source\PSoC5/ADC_DelSig.c **** 
 653:Generated_Source\PSoC5/ADC_DelSig.c ****     do
 654:Generated_Source\PSoC5/ADC_DelSig.c ****     {
 655:Generated_Source\PSoC5/ADC_DelSig.c ****         /* Check for stop convert if conversion mode is Single Sample with
 656:Generated_Source\PSoC5/ADC_DelSig.c ****         *   resolution above 16 bit
 657:Generated_Source\PSoC5/ADC_DelSig.c ****         */
 658:Generated_Source\PSoC5/ADC_DelSig.c ****         if(ADC_DelSig_stopConversion != 0u)
 1071              		.loc 1 658 0
 1072 000a 0D4B     		ldr	r3, .L49
 1073 000c 1B78     		ldrb	r3, [r3]
 1074 000e DBB2     		uxtb	r3, r3
 1075 0010 002B     		cmp	r3, #0
 1076 0012 03D0     		beq	.L44
 659:Generated_Source\PSoC5/ADC_DelSig.c ****         {
 660:Generated_Source\PSoC5/ADC_DelSig.c ****             status = ADC_DelSig_convDone;
 1077              		.loc 1 660 0
 1078 0014 0B4B     		ldr	r3, .L49+4
 1079 0016 1B78     		ldrb	r3, [r3]
 1080 0018 FB73     		strb	r3, [r7, #15]
 1081 001a 05E0     		b	.L45
 1082              	.L44:
 661:Generated_Source\PSoC5/ADC_DelSig.c ****         }
 662:Generated_Source\PSoC5/ADC_DelSig.c ****         else
 663:Generated_Source\PSoC5/ADC_DelSig.c ****         {
 664:Generated_Source\PSoC5/ADC_DelSig.c ****             status = ADC_DelSig_DEC_SR_REG & ADC_DelSig_DEC_CONV_DONE;
 1083              		.loc 1 664 0
 1084 001c 0A4B     		ldr	r3, .L49+8
 1085 001e 1B78     		ldrb	r3, [r3]
 1086 0020 DBB2     		uxtb	r3, r3
 1087 0022 03F00103 		and	r3, r3, #1
 1088 0026 FB73     		strb	r3, [r7, #15]
 1089              	.L45:
 665:Generated_Source\PSoC5/ADC_DelSig.c ****         }
 666:Generated_Source\PSoC5/ADC_DelSig.c ****     }while((status != ADC_DelSig_DEC_CONV_DONE) && (retMode == ADC_DelSig_WAIT_FOR_RESULT));
 1090              		.loc 1 666 0
 1091 0028 FB7B     		ldrb	r3, [r7, #15]	@ zero_extendqisi2
 1092 002a 012B     		cmp	r3, #1
 1093 002c 02D0     		beq	.L46
 1094              		.loc 1 666 0 is_stmt 0 discriminator 1
 1095 002e FB79     		ldrb	r3, [r7, #7]	@ zero_extendqisi2
 1096 0030 002B     		cmp	r3, #0
 1097 0032 EAD0     		beq	.L47
 1098              	.L46:
 667:Generated_Source\PSoC5/ADC_DelSig.c **** 
 668:Generated_Source\PSoC5/ADC_DelSig.c ****     return(status);
 1099              		.loc 1 668 0 is_stmt 1
ARM GAS  C:\Users\rcaravac\AppData\Local\Temp\ccauAhrg.s 			page 32


 1100 0034 FB7B     		ldrb	r3, [r7, #15]	@ zero_extendqisi2
 669:Generated_Source\PSoC5/ADC_DelSig.c **** }
 1101              		.loc 1 669 0
 1102 0036 1846     		mov	r0, r3
 1103 0038 1437     		adds	r7, r7, #20
 1104              		.cfi_def_cfa_offset 4
 1105 003a BD46     		mov	sp, r7
 1106              		.cfi_def_cfa_register 13
 1107              		@ sp needed
 1108 003c 80BC     		pop	{r7}
 1109              		.cfi_restore 7
 1110              		.cfi_def_cfa_offset 0
 1111 003e 7047     		bx	lr
 1112              	.L50:
 1113              		.align	2
 1114              	.L49:
 1115 0040 00000000 		.word	ADC_DelSig_stopConversion
 1116 0044 00000000 		.word	ADC_DelSig_convDone
 1117 0048 014E0040 		.word	1073761793
 1118              		.cfi_endproc
 1119              	.LFE10:
 1120              		.size	ADC_DelSig_IsEndConversion, .-ADC_DelSig_IsEndConversion
 1121              		.section	.text.ADC_DelSig_GetResult8,"ax",%progbits
 1122              		.align	2
 1123              		.global	ADC_DelSig_GetResult8
 1124              		.thumb
 1125              		.thumb_func
 1126              		.type	ADC_DelSig_GetResult8, %function
 1127              	ADC_DelSig_GetResult8:
 1128              	.LFB11:
 670:Generated_Source\PSoC5/ADC_DelSig.c **** 
 671:Generated_Source\PSoC5/ADC_DelSig.c **** 
 672:Generated_Source\PSoC5/ADC_DelSig.c **** /*******************************************************************************
 673:Generated_Source\PSoC5/ADC_DelSig.c **** * Function Name: ADC_DelSig_GetResult8
 674:Generated_Source\PSoC5/ADC_DelSig.c **** ********************************************************************************
 675:Generated_Source\PSoC5/ADC_DelSig.c **** *
 676:Generated_Source\PSoC5/ADC_DelSig.c **** * Summary:
 677:Generated_Source\PSoC5/ADC_DelSig.c **** *  This function returns the result of an 8-bit conversion. If the
 678:Generated_Source\PSoC5/ADC_DelSig.c **** *  resolution is set greater than 8-bits, the LSB of the result will be
 679:Generated_Source\PSoC5/ADC_DelSig.c **** *  returned. When the ADC is configured for 8-bit single ended mode,
 680:Generated_Source\PSoC5/ADC_DelSig.c **** *  the ADC_GetResult16() function should be used instead. This
 681:Generated_Source\PSoC5/ADC_DelSig.c **** *  function returns only signed 8-bit values. The maximum positive
 682:Generated_Source\PSoC5/ADC_DelSig.c **** *  signed 8-bit value is 127, but in singled ended 8-bit mode, the
 683:Generated_Source\PSoC5/ADC_DelSig.c **** *  maximum positive value is 255.
 684:Generated_Source\PSoC5/ADC_DelSig.c **** *
 685:Generated_Source\PSoC5/ADC_DelSig.c **** * Parameters:
 686:Generated_Source\PSoC5/ADC_DelSig.c **** *  None
 687:Generated_Source\PSoC5/ADC_DelSig.c **** *
 688:Generated_Source\PSoC5/ADC_DelSig.c **** * Return:
 689:Generated_Source\PSoC5/ADC_DelSig.c **** *  int8: The LSB of the last ADC conversion.
 690:Generated_Source\PSoC5/ADC_DelSig.c **** *
 691:Generated_Source\PSoC5/ADC_DelSig.c **** * Global variables:
 692:Generated_Source\PSoC5/ADC_DelSig.c **** *  ADC_DelSig_convDone:  Cleared in single sample mode with resolution
 693:Generated_Source\PSoC5/ADC_DelSig.c **** *                              above 16 bits
 694:Generated_Source\PSoC5/ADC_DelSig.c **** *
 695:Generated_Source\PSoC5/ADC_DelSig.c **** *******************************************************************************/
 696:Generated_Source\PSoC5/ADC_DelSig.c **** int8 ADC_DelSig_GetResult8( void ) 
ARM GAS  C:\Users\rcaravac\AppData\Local\Temp\ccauAhrg.s 			page 33


 697:Generated_Source\PSoC5/ADC_DelSig.c **** {
 1129              		.loc 1 697 0
 1130              		.cfi_startproc
 1131              		@ args = 0, pretend = 0, frame = 8
 1132              		@ frame_needed = 1, uses_anonymous_args = 0
 1133              		@ link register save eliminated.
 1134 0000 80B4     		push	{r7}
 1135              		.cfi_def_cfa_offset 4
 1136              		.cfi_offset 7, -4
 1137 0002 83B0     		sub	sp, sp, #12
 1138              		.cfi_def_cfa_offset 16
 1139 0004 00AF     		add	r7, sp, #0
 1140              		.cfi_def_cfa_register 7
 698:Generated_Source\PSoC5/ADC_DelSig.c ****     int8 result;
 699:Generated_Source\PSoC5/ADC_DelSig.c ****     uint8 coherency;
 700:Generated_Source\PSoC5/ADC_DelSig.c **** 
 701:Generated_Source\PSoC5/ADC_DelSig.c ****     /* Read active coherency configuration */
 702:Generated_Source\PSoC5/ADC_DelSig.c ****     coherency = ADC_DelSig_DEC_COHER_REG & ADC_DelSig_DEC_SAMP_KEY_MASK;
 1141              		.loc 1 702 0
 1142 0006 124B     		ldr	r3, .L56
 1143 0008 1B78     		ldrb	r3, [r3]
 1144 000a DBB2     		uxtb	r3, r3
 1145 000c 03F00303 		and	r3, r3, #3
 1146 0010 FB71     		strb	r3, [r7, #7]
 703:Generated_Source\PSoC5/ADC_DelSig.c **** 
 704:Generated_Source\PSoC5/ADC_DelSig.c ****     result = (int8)ADC_DelSig_DEC_SAMP_REG;
 1147              		.loc 1 704 0
 1148 0012 104B     		ldr	r3, .L56+4
 1149 0014 1B78     		ldrb	r3, [r3]
 1150 0016 DBB2     		uxtb	r3, r3
 1151 0018 BB71     		strb	r3, [r7, #6]
 705:Generated_Source\PSoC5/ADC_DelSig.c **** 
 706:Generated_Source\PSoC5/ADC_DelSig.c ****     if(coherency == ADC_DelSig_DEC_SAMP_KEY_MID)
 1152              		.loc 1 706 0
 1153 001a FB79     		ldrb	r3, [r7, #7]	@ zero_extendqisi2
 1154 001c 022B     		cmp	r3, #2
 1155 001e 02D1     		bne	.L52
 707:Generated_Source\PSoC5/ADC_DelSig.c ****     {   /* Dummy read of the middle byte to unlock the coherency */
 708:Generated_Source\PSoC5/ADC_DelSig.c ****         (void)ADC_DelSig_DEC_SAMPM_REG;
 1156              		.loc 1 708 0
 1157 0020 0D4B     		ldr	r3, .L56+8
 1158 0022 1B78     		ldrb	r3, [r3]
 1159 0024 04E0     		b	.L53
 1160              	.L52:
 709:Generated_Source\PSoC5/ADC_DelSig.c ****     }
 710:Generated_Source\PSoC5/ADC_DelSig.c ****     else  if(coherency == ADC_DelSig_DEC_SAMP_KEY_HIGH)
 1161              		.loc 1 710 0
 1162 0026 FB79     		ldrb	r3, [r7, #7]	@ zero_extendqisi2
 1163 0028 032B     		cmp	r3, #3
 1164 002a 01D1     		bne	.L53
 711:Generated_Source\PSoC5/ADC_DelSig.c ****     {   /* Dummy read of the MSB byte to unlock the coherency */
 712:Generated_Source\PSoC5/ADC_DelSig.c ****         (void)ADC_DelSig_DEC_SAMPH_REG;
 1165              		.loc 1 712 0
 1166 002c 0B4B     		ldr	r3, .L56+12
 1167 002e 1B78     		ldrb	r3, [r3]
 1168              	.L53:
 713:Generated_Source\PSoC5/ADC_DelSig.c ****     }
ARM GAS  C:\Users\rcaravac\AppData\Local\Temp\ccauAhrg.s 			page 34


 714:Generated_Source\PSoC5/ADC_DelSig.c ****     else /*No action required for other coherency */
 715:Generated_Source\PSoC5/ADC_DelSig.c ****     {
 716:Generated_Source\PSoC5/ADC_DelSig.c ****     }
 717:Generated_Source\PSoC5/ADC_DelSig.c ****     /* Clear conversion complete status in Single Sample mode with resolution above 16 bit */
 718:Generated_Source\PSoC5/ADC_DelSig.c ****     if(ADC_DelSig_stopConversion != 0u)
 1169              		.loc 1 718 0
 1170 0030 0B4B     		ldr	r3, .L56+16
 1171 0032 1B78     		ldrb	r3, [r3]
 1172 0034 DBB2     		uxtb	r3, r3
 1173 0036 002B     		cmp	r3, #0
 1174 0038 02D0     		beq	.L54
 719:Generated_Source\PSoC5/ADC_DelSig.c ****     {
 720:Generated_Source\PSoC5/ADC_DelSig.c ****         ADC_DelSig_convDone = 0u;
 1175              		.loc 1 720 0
 1176 003a 0A4B     		ldr	r3, .L56+20
 1177 003c 0022     		movs	r2, #0
 1178 003e 1A70     		strb	r2, [r3]
 1179              	.L54:
 721:Generated_Source\PSoC5/ADC_DelSig.c ****     }
 722:Generated_Source\PSoC5/ADC_DelSig.c ****     return (result);
 1180              		.loc 1 722 0
 1181 0040 97F90630 		ldrsb	r3, [r7, #6]
 723:Generated_Source\PSoC5/ADC_DelSig.c **** }
 1182              		.loc 1 723 0
 1183 0044 1846     		mov	r0, r3
 1184 0046 0C37     		adds	r7, r7, #12
 1185              		.cfi_def_cfa_offset 4
 1186 0048 BD46     		mov	sp, r7
 1187              		.cfi_def_cfa_register 13
 1188              		@ sp needed
 1189 004a 80BC     		pop	{r7}
 1190              		.cfi_restore 7
 1191              		.cfi_def_cfa_offset 0
 1192 004c 7047     		bx	lr
 1193              	.L57:
 1194 004e 00BF     		.align	2
 1195              	.L56:
 1196 0050 144E0040 		.word	1073761812
 1197 0054 104E0040 		.word	1073761808
 1198 0058 114E0040 		.word	1073761809
 1199 005c 124E0040 		.word	1073761810
 1200 0060 00000000 		.word	ADC_DelSig_stopConversion
 1201 0064 00000000 		.word	ADC_DelSig_convDone
 1202              		.cfi_endproc
 1203              	.LFE11:
 1204              		.size	ADC_DelSig_GetResult8, .-ADC_DelSig_GetResult8
 1205              		.section	.text.ADC_DelSig_GetResult16,"ax",%progbits
 1206              		.align	2
 1207              		.global	ADC_DelSig_GetResult16
 1208              		.thumb
 1209              		.thumb_func
 1210              		.type	ADC_DelSig_GetResult16, %function
 1211              	ADC_DelSig_GetResult16:
 1212              	.LFB12:
 724:Generated_Source\PSoC5/ADC_DelSig.c **** 
 725:Generated_Source\PSoC5/ADC_DelSig.c **** 
 726:Generated_Source\PSoC5/ADC_DelSig.c **** /*******************************************************************************
ARM GAS  C:\Users\rcaravac\AppData\Local\Temp\ccauAhrg.s 			page 35


 727:Generated_Source\PSoC5/ADC_DelSig.c **** * Function Name: ADC_DelSig_GetResult16
 728:Generated_Source\PSoC5/ADC_DelSig.c **** ********************************************************************************
 729:Generated_Source\PSoC5/ADC_DelSig.c **** *
 730:Generated_Source\PSoC5/ADC_DelSig.c **** * Summary:
 731:Generated_Source\PSoC5/ADC_DelSig.c **** *  Returns a 16-bit result for a conversion with a result that has a
 732:Generated_Source\PSoC5/ADC_DelSig.c **** *  resolution of 8 to 16 bits. If the resolution is set greater than 16-bits,
 733:Generated_Source\PSoC5/ADC_DelSig.c **** *  it will return the 16 least significant bits of the result. When the ADC
 734:Generated_Source\PSoC5/ADC_DelSig.c **** *  is configured for 16-bit single ended mode, the ADC_GetResult32()
 735:Generated_Source\PSoC5/ADC_DelSig.c **** *  function should be used instead. This function returns only signed
 736:Generated_Source\PSoC5/ADC_DelSig.c **** *  16-bit result, which allows a maximum positive value of 32767, not 65535.
 737:Generated_Source\PSoC5/ADC_DelSig.c **** *  This function supports different coherency settings.
 738:Generated_Source\PSoC5/ADC_DelSig.c **** *
 739:Generated_Source\PSoC5/ADC_DelSig.c **** * Parameters:
 740:Generated_Source\PSoC5/ADC_DelSig.c **** *   void
 741:Generated_Source\PSoC5/ADC_DelSig.c **** *
 742:Generated_Source\PSoC5/ADC_DelSig.c **** * Return:
 743:Generated_Source\PSoC5/ADC_DelSig.c **** *  int16:  ADC result.
 744:Generated_Source\PSoC5/ADC_DelSig.c **** *
 745:Generated_Source\PSoC5/ADC_DelSig.c **** * Global variables:
 746:Generated_Source\PSoC5/ADC_DelSig.c **** *  ADC_DelSig_convDone:  Cleared in single sample mode with resolution
 747:Generated_Source\PSoC5/ADC_DelSig.c **** *                              above 16 bits
 748:Generated_Source\PSoC5/ADC_DelSig.c **** *
 749:Generated_Source\PSoC5/ADC_DelSig.c **** *******************************************************************************/
 750:Generated_Source\PSoC5/ADC_DelSig.c **** int16 ADC_DelSig_GetResult16(void) 
 751:Generated_Source\PSoC5/ADC_DelSig.c **** {
 1213              		.loc 1 751 0
 1214              		.cfi_startproc
 1215              		@ args = 0, pretend = 0, frame = 8
 1216              		@ frame_needed = 1, uses_anonymous_args = 0
 1217              		@ link register save eliminated.
 1218 0000 80B4     		push	{r7}
 1219              		.cfi_def_cfa_offset 4
 1220              		.cfi_offset 7, -4
 1221 0002 83B0     		sub	sp, sp, #12
 1222              		.cfi_def_cfa_offset 16
 1223 0004 00AF     		add	r7, sp, #0
 1224              		.cfi_def_cfa_register 7
 752:Generated_Source\PSoC5/ADC_DelSig.c ****     uint16 result;
 753:Generated_Source\PSoC5/ADC_DelSig.c ****     uint8 coherency;
 754:Generated_Source\PSoC5/ADC_DelSig.c **** 
 755:Generated_Source\PSoC5/ADC_DelSig.c ****     /* Read active coherency configuration */
 756:Generated_Source\PSoC5/ADC_DelSig.c ****     coherency = ADC_DelSig_DEC_COHER_REG & ADC_DelSig_DEC_SAMP_KEY_MASK;
 1225              		.loc 1 756 0
 1226 0006 174B     		ldr	r3, .L63
 1227 0008 1B78     		ldrb	r3, [r3]
 1228 000a DBB2     		uxtb	r3, r3
 1229 000c 03F00303 		and	r3, r3, #3
 1230 0010 7B71     		strb	r3, [r7, #5]
 757:Generated_Source\PSoC5/ADC_DelSig.c **** 
 758:Generated_Source\PSoC5/ADC_DelSig.c ****     if(coherency <= ADC_DelSig_DEC_SAMP_KEY_LOW)
 1231              		.loc 1 758 0
 1232 0012 7B79     		ldrb	r3, [r7, #5]	@ zero_extendqisi2
 1233 0014 012B     		cmp	r3, #1
 1234 0016 03D8     		bhi	.L59
 759:Generated_Source\PSoC5/ADC_DelSig.c ****     {   /*  Use default method to read result registers i.e. LSB byte read at the end*/
 760:Generated_Source\PSoC5/ADC_DelSig.c ****         #if (CY_PSOC3)
 761:Generated_Source\PSoC5/ADC_DelSig.c ****             result = ADC_DelSig_DEC_SAMPM_REG;
ARM GAS  C:\Users\rcaravac\AppData\Local\Temp\ccauAhrg.s 			page 36


 762:Generated_Source\PSoC5/ADC_DelSig.c ****             result = (result << 8u) | ADC_DelSig_DEC_SAMP_REG;
 763:Generated_Source\PSoC5/ADC_DelSig.c ****         #else
 764:Generated_Source\PSoC5/ADC_DelSig.c ****             result = (CY_GET_REG16(ADC_DelSig_DEC_SAMP_16B_PTR));
 1235              		.loc 1 764 0
 1236 0018 134B     		ldr	r3, .L63+4
 1237 001a 1B88     		ldrh	r3, [r3]	@ movhi
 1238 001c FB80     		strh	r3, [r7, #6]	@ movhi
 1239 001e 11E0     		b	.L60
 1240              	.L59:
 765:Generated_Source\PSoC5/ADC_DelSig.c ****         #endif /* CY_PSOC3 */
 766:Generated_Source\PSoC5/ADC_DelSig.c ****     }
 767:Generated_Source\PSoC5/ADC_DelSig.c ****     else /* MID or HIGH */
 768:Generated_Source\PSoC5/ADC_DelSig.c ****     {   /* Read middle byte at the end */
 769:Generated_Source\PSoC5/ADC_DelSig.c ****         #if (CY_PSOC3)
 770:Generated_Source\PSoC5/ADC_DelSig.c ****             result = (CY_GET_REG16(ADC_DelSig_DEC_SAMP_16B_PTR));
 771:Generated_Source\PSoC5/ADC_DelSig.c ****         #else
 772:Generated_Source\PSoC5/ADC_DelSig.c ****             result = ADC_DelSig_DEC_SAMP_REG;
 1241              		.loc 1 772 0
 1242 0020 114B     		ldr	r3, .L63+4
 1243 0022 1B78     		ldrb	r3, [r3]
 1244 0024 DBB2     		uxtb	r3, r3
 1245 0026 FB80     		strh	r3, [r7, #6]	@ movhi
 773:Generated_Source\PSoC5/ADC_DelSig.c ****             result |=  (uint16)((uint16)ADC_DelSig_DEC_SAMPM_REG << 8u);
 1246              		.loc 1 773 0
 1247 0028 104B     		ldr	r3, .L63+8
 1248 002a 1B78     		ldrb	r3, [r3]
 1249 002c DBB2     		uxtb	r3, r3
 1250 002e 9BB2     		uxth	r3, r3
 1251 0030 1B02     		lsls	r3, r3, #8
 1252 0032 9AB2     		uxth	r2, r3
 1253 0034 FB88     		ldrh	r3, [r7, #6]	@ movhi
 1254 0036 1343     		orrs	r3, r3, r2
 1255 0038 FB80     		strh	r3, [r7, #6]	@ movhi
 774:Generated_Source\PSoC5/ADC_DelSig.c ****         #endif /* CY_PSOC3 */
 775:Generated_Source\PSoC5/ADC_DelSig.c ****         if(coherency == ADC_DelSig_DEC_SAMP_KEY_HIGH)
 1256              		.loc 1 775 0
 1257 003a 7B79     		ldrb	r3, [r7, #5]	@ zero_extendqisi2
 1258 003c 032B     		cmp	r3, #3
 1259 003e 01D1     		bne	.L60
 776:Generated_Source\PSoC5/ADC_DelSig.c ****         {   /* Dummy read of the MSB byte to unlock the coherency */
 777:Generated_Source\PSoC5/ADC_DelSig.c ****             (void)ADC_DelSig_DEC_SAMPH_REG;
 1260              		.loc 1 777 0
 1261 0040 0B4B     		ldr	r3, .L63+12
 1262 0042 1B78     		ldrb	r3, [r3]
 1263              	.L60:
 778:Generated_Source\PSoC5/ADC_DelSig.c ****         }
 779:Generated_Source\PSoC5/ADC_DelSig.c ****     }
 780:Generated_Source\PSoC5/ADC_DelSig.c ****     /* Clear conversion complete status in Single Sample mode with resolution above 16 bit */
 781:Generated_Source\PSoC5/ADC_DelSig.c ****     if(ADC_DelSig_stopConversion != 0u)
 1264              		.loc 1 781 0
 1265 0044 0B4B     		ldr	r3, .L63+16
 1266 0046 1B78     		ldrb	r3, [r3]
 1267 0048 DBB2     		uxtb	r3, r3
 1268 004a 002B     		cmp	r3, #0
 1269 004c 02D0     		beq	.L61
 782:Generated_Source\PSoC5/ADC_DelSig.c ****     {
 783:Generated_Source\PSoC5/ADC_DelSig.c ****         ADC_DelSig_convDone = 0u;
ARM GAS  C:\Users\rcaravac\AppData\Local\Temp\ccauAhrg.s 			page 37


 1270              		.loc 1 783 0
 1271 004e 0A4B     		ldr	r3, .L63+20
 1272 0050 0022     		movs	r2, #0
 1273 0052 1A70     		strb	r2, [r3]
 1274              	.L61:
 784:Generated_Source\PSoC5/ADC_DelSig.c ****     }
 785:Generated_Source\PSoC5/ADC_DelSig.c **** 
 786:Generated_Source\PSoC5/ADC_DelSig.c ****     return ((int16)result);
 1275              		.loc 1 786 0
 1276 0054 B7F90630 		ldrsh	r3, [r7, #6]
 787:Generated_Source\PSoC5/ADC_DelSig.c **** }
 1277              		.loc 1 787 0
 1278 0058 1846     		mov	r0, r3
 1279 005a 0C37     		adds	r7, r7, #12
 1280              		.cfi_def_cfa_offset 4
 1281 005c BD46     		mov	sp, r7
 1282              		.cfi_def_cfa_register 13
 1283              		@ sp needed
 1284 005e 80BC     		pop	{r7}
 1285              		.cfi_restore 7
 1286              		.cfi_def_cfa_offset 0
 1287 0060 7047     		bx	lr
 1288              	.L64:
 1289 0062 00BF     		.align	2
 1290              	.L63:
 1291 0064 144E0040 		.word	1073761812
 1292 0068 104E0040 		.word	1073761808
 1293 006c 114E0040 		.word	1073761809
 1294 0070 124E0040 		.word	1073761810
 1295 0074 00000000 		.word	ADC_DelSig_stopConversion
 1296 0078 00000000 		.word	ADC_DelSig_convDone
 1297              		.cfi_endproc
 1298              	.LFE12:
 1299              		.size	ADC_DelSig_GetResult16, .-ADC_DelSig_GetResult16
 1300              		.section	.text.ADC_DelSig_GetResult32,"ax",%progbits
 1301              		.align	2
 1302              		.global	ADC_DelSig_GetResult32
 1303              		.thumb
 1304              		.thumb_func
 1305              		.type	ADC_DelSig_GetResult32, %function
 1306              	ADC_DelSig_GetResult32:
 1307              	.LFB13:
 788:Generated_Source\PSoC5/ADC_DelSig.c **** 
 789:Generated_Source\PSoC5/ADC_DelSig.c **** 
 790:Generated_Source\PSoC5/ADC_DelSig.c **** /*******************************************************************************
 791:Generated_Source\PSoC5/ADC_DelSig.c **** * Function Name: ADC_DelSig_GetResult32
 792:Generated_Source\PSoC5/ADC_DelSig.c **** ********************************************************************************
 793:Generated_Source\PSoC5/ADC_DelSig.c **** *
 794:Generated_Source\PSoC5/ADC_DelSig.c **** * Summary:
 795:Generated_Source\PSoC5/ADC_DelSig.c **** *  Returns a 32-bit result for a conversion with a result that has a
 796:Generated_Source\PSoC5/ADC_DelSig.c **** *  resolution of 8 to 20 bits.
 797:Generated_Source\PSoC5/ADC_DelSig.c **** *  This function supports different coherency settings.
 798:Generated_Source\PSoC5/ADC_DelSig.c **** *
 799:Generated_Source\PSoC5/ADC_DelSig.c **** * Parameters:
 800:Generated_Source\PSoC5/ADC_DelSig.c **** *  None
 801:Generated_Source\PSoC5/ADC_DelSig.c **** *
 802:Generated_Source\PSoC5/ADC_DelSig.c **** * Return:
ARM GAS  C:\Users\rcaravac\AppData\Local\Temp\ccauAhrg.s 			page 38


 803:Generated_Source\PSoC5/ADC_DelSig.c **** *  int32: Result of the last ADC conversion.
 804:Generated_Source\PSoC5/ADC_DelSig.c **** *
 805:Generated_Source\PSoC5/ADC_DelSig.c **** * Global variables:
 806:Generated_Source\PSoC5/ADC_DelSig.c **** *  ADC_DelSig_convDone:  Cleared in single sample mode with resolution
 807:Generated_Source\PSoC5/ADC_DelSig.c **** *                              above 16 bits
 808:Generated_Source\PSoC5/ADC_DelSig.c **** *
 809:Generated_Source\PSoC5/ADC_DelSig.c **** *******************************************************************************/
 810:Generated_Source\PSoC5/ADC_DelSig.c **** int32 ADC_DelSig_GetResult32(void) 
 811:Generated_Source\PSoC5/ADC_DelSig.c **** {
 1308              		.loc 1 811 0
 1309              		.cfi_startproc
 1310              		@ args = 0, pretend = 0, frame = 8
 1311              		@ frame_needed = 1, uses_anonymous_args = 0
 1312              		@ link register save eliminated.
 1313 0000 80B4     		push	{r7}
 1314              		.cfi_def_cfa_offset 4
 1315              		.cfi_offset 7, -4
 1316 0002 83B0     		sub	sp, sp, #12
 1317              		.cfi_def_cfa_offset 16
 1318 0004 00AF     		add	r7, sp, #0
 1319              		.cfi_def_cfa_register 7
 812:Generated_Source\PSoC5/ADC_DelSig.c ****     uint32 result;
 813:Generated_Source\PSoC5/ADC_DelSig.c ****     uint8 coherency;
 814:Generated_Source\PSoC5/ADC_DelSig.c ****     #if (CY_PSOC3)
 815:Generated_Source\PSoC5/ADC_DelSig.c **** 	    uint16 tmp;
 816:Generated_Source\PSoC5/ADC_DelSig.c ****     #endif /* CY_PSOC3 */
 817:Generated_Source\PSoC5/ADC_DelSig.c **** 
 818:Generated_Source\PSoC5/ADC_DelSig.c ****     /* Read active coherency configuration */
 819:Generated_Source\PSoC5/ADC_DelSig.c ****     coherency = ADC_DelSig_DEC_COHER_REG & ADC_DelSig_DEC_SAMP_KEY_MASK;
 1320              		.loc 1 819 0
 1321 0006 224B     		ldr	r3, .L71
 1322 0008 1B78     		ldrb	r3, [r3]
 1323 000a DBB2     		uxtb	r3, r3
 1324 000c 03F00303 		and	r3, r3, #3
 1325 0010 FB70     		strb	r3, [r7, #3]
 820:Generated_Source\PSoC5/ADC_DelSig.c **** 
 821:Generated_Source\PSoC5/ADC_DelSig.c ****     if(coherency <= ADC_DelSig_DEC_SAMP_KEY_LOW)
 1326              		.loc 1 821 0
 1327 0012 FB78     		ldrb	r3, [r7, #3]	@ zero_extendqisi2
 1328 0014 012B     		cmp	r3, #1
 1329 0016 0BD8     		bhi	.L66
 822:Generated_Source\PSoC5/ADC_DelSig.c ****     {   /*  Use default method to read result registers i.e. LSB byte read at the end*/
 823:Generated_Source\PSoC5/ADC_DelSig.c ****         #if (CY_PSOC3)
 824:Generated_Source\PSoC5/ADC_DelSig.c ****             result = ADC_DelSig_DEC_SAMPH_REG;
 825:Generated_Source\PSoC5/ADC_DelSig.c ****             if((result & 0x80u) != 0u)
 826:Generated_Source\PSoC5/ADC_DelSig.c ****             {   /* Sign extend */
 827:Generated_Source\PSoC5/ADC_DelSig.c ****                 result |= 0xFF00u;
 828:Generated_Source\PSoC5/ADC_DelSig.c ****             }
 829:Generated_Source\PSoC5/ADC_DelSig.c ****             result = (result << 8u) | ADC_DelSig_DEC_SAMPM_REG;
 830:Generated_Source\PSoC5/ADC_DelSig.c ****             result = (result << 8u) | ADC_DelSig_DEC_SAMP_REG;
 831:Generated_Source\PSoC5/ADC_DelSig.c ****         #else
 832:Generated_Source\PSoC5/ADC_DelSig.c ****             result = CY_GET_REG16(ADC_DelSig_DEC_SAMPH_16B_PTR);
 1330              		.loc 1 832 0
 1331 0018 1E4B     		ldr	r3, .L71+4
 1332 001a 1B88     		ldrh	r3, [r3]	@ movhi
 1333 001c 9BB2     		uxth	r3, r3
 1334 001e 7B60     		str	r3, [r7, #4]
ARM GAS  C:\Users\rcaravac\AppData\Local\Temp\ccauAhrg.s 			page 39


 833:Generated_Source\PSoC5/ADC_DelSig.c ****             result = (result << 16u) | (CY_GET_REG16(ADC_DelSig_DEC_SAMP_16B_PTR));
 1335              		.loc 1 833 0
 1336 0020 7B68     		ldr	r3, [r7, #4]
 1337 0022 1B04     		lsls	r3, r3, #16
 1338 0024 1C4A     		ldr	r2, .L71+8
 1339 0026 1288     		ldrh	r2, [r2]	@ movhi
 1340 0028 92B2     		uxth	r2, r2
 1341 002a 1343     		orrs	r3, r3, r2
 1342 002c 7B60     		str	r3, [r7, #4]
 1343 002e 20E0     		b	.L67
 1344              	.L66:
 834:Generated_Source\PSoC5/ADC_DelSig.c ****         #endif /* CY_PSOC3 */
 835:Generated_Source\PSoC5/ADC_DelSig.c ****     }
 836:Generated_Source\PSoC5/ADC_DelSig.c ****     else if(coherency == ADC_DelSig_DEC_SAMP_KEY_MID)
 1345              		.loc 1 836 0
 1346 0030 FB78     		ldrb	r3, [r7, #3]	@ zero_extendqisi2
 1347 0032 022B     		cmp	r3, #2
 1348 0034 12D1     		bne	.L68
 837:Generated_Source\PSoC5/ADC_DelSig.c ****     {   /* Read middle byte at the end */
 838:Generated_Source\PSoC5/ADC_DelSig.c ****         #if (CY_PSOC3)
 839:Generated_Source\PSoC5/ADC_DelSig.c ****             result = ADC_DelSig_DEC_SAMPH_REG;
 840:Generated_Source\PSoC5/ADC_DelSig.c ****             if((result & 0x80u) != 0u)
 841:Generated_Source\PSoC5/ADC_DelSig.c ****             {   /* Sign extend */
 842:Generated_Source\PSoC5/ADC_DelSig.c ****                 result |= 0xFF00u;
 843:Generated_Source\PSoC5/ADC_DelSig.c ****             }
 844:Generated_Source\PSoC5/ADC_DelSig.c ****             result = (result << 16u) | (CY_GET_REG16(ADC_DelSig_DEC_SAMP_16B_PTR));
 845:Generated_Source\PSoC5/ADC_DelSig.c ****         #else
 846:Generated_Source\PSoC5/ADC_DelSig.c ****             result = CY_GET_REG16(ADC_DelSig_DEC_SAMPH_16B_PTR);
 1349              		.loc 1 846 0
 1350 0036 174B     		ldr	r3, .L71+4
 1351 0038 1B88     		ldrh	r3, [r3]	@ movhi
 1352 003a 9BB2     		uxth	r3, r3
 1353 003c 7B60     		str	r3, [r7, #4]
 847:Generated_Source\PSoC5/ADC_DelSig.c ****             result = (result << 16u) | ADC_DelSig_DEC_SAMP_REG;
 1354              		.loc 1 847 0
 1355 003e 7B68     		ldr	r3, [r7, #4]
 1356 0040 1B04     		lsls	r3, r3, #16
 1357 0042 154A     		ldr	r2, .L71+8
 1358 0044 1278     		ldrb	r2, [r2]
 1359 0046 D2B2     		uxtb	r2, r2
 1360 0048 1343     		orrs	r3, r3, r2
 1361 004a 7B60     		str	r3, [r7, #4]
 848:Generated_Source\PSoC5/ADC_DelSig.c ****             result |=  (uint32)((uint32)ADC_DelSig_DEC_SAMPM_REG << 8u);
 1362              		.loc 1 848 0
 1363 004c 134B     		ldr	r3, .L71+12
 1364 004e 1B78     		ldrb	r3, [r3]
 1365 0050 DBB2     		uxtb	r3, r3
 1366 0052 1B02     		lsls	r3, r3, #8
 1367 0054 7A68     		ldr	r2, [r7, #4]
 1368 0056 1343     		orrs	r3, r3, r2
 1369 0058 7B60     		str	r3, [r7, #4]
 1370 005a 0AE0     		b	.L67
 1371              	.L68:
 849:Generated_Source\PSoC5/ADC_DelSig.c ****         #endif /* CY_PSOC3 */
 850:Generated_Source\PSoC5/ADC_DelSig.c ****     }
 851:Generated_Source\PSoC5/ADC_DelSig.c ****     else /*ADC_DelSig_DEC_SAMP_KEY_HIGH */
 852:Generated_Source\PSoC5/ADC_DelSig.c ****     {
ARM GAS  C:\Users\rcaravac\AppData\Local\Temp\ccauAhrg.s 			page 40


 853:Generated_Source\PSoC5/ADC_DelSig.c ****         /* Read MSB byte at the end */
 854:Generated_Source\PSoC5/ADC_DelSig.c ****         #if (CY_PSOC3)
 855:Generated_Source\PSoC5/ADC_DelSig.c ****             result = CY_GET_REG16(ADC_DelSig_DEC_SAMP_16B_PTR);
 856:Generated_Source\PSoC5/ADC_DelSig.c **** 			tmp = ADC_DelSig_DEC_SAMPH_REG;
 857:Generated_Source\PSoC5/ADC_DelSig.c ****             if((tmp & 0x80u) != 0u)
 858:Generated_Source\PSoC5/ADC_DelSig.c ****             {   /* Sign extend */
 859:Generated_Source\PSoC5/ADC_DelSig.c ****                 tmp |= 0xFF00u;
 860:Generated_Source\PSoC5/ADC_DelSig.c ****             }
 861:Generated_Source\PSoC5/ADC_DelSig.c ****             result |= (uint32)tmp << 16u;
 862:Generated_Source\PSoC5/ADC_DelSig.c ****         #else
 863:Generated_Source\PSoC5/ADC_DelSig.c ****             result = CY_GET_REG16(ADC_DelSig_DEC_SAMP_16B_PTR);
 1372              		.loc 1 863 0
 1373 005c 0E4B     		ldr	r3, .L71+8
 1374 005e 1B88     		ldrh	r3, [r3]	@ movhi
 1375 0060 9BB2     		uxth	r3, r3
 1376 0062 7B60     		str	r3, [r7, #4]
 864:Generated_Source\PSoC5/ADC_DelSig.c ****             result |= (uint32)((uint32)CY_GET_REG16(ADC_DelSig_DEC_SAMPH_16B_PTR) << 16u);
 1377              		.loc 1 864 0
 1378 0064 0B4B     		ldr	r3, .L71+4
 1379 0066 1B88     		ldrh	r3, [r3]	@ movhi
 1380 0068 9BB2     		uxth	r3, r3
 1381 006a 1B04     		lsls	r3, r3, #16
 1382 006c 7A68     		ldr	r2, [r7, #4]
 1383 006e 1343     		orrs	r3, r3, r2
 1384 0070 7B60     		str	r3, [r7, #4]
 1385              	.L67:
 865:Generated_Source\PSoC5/ADC_DelSig.c ****         #endif /* CY_PSOC3 */
 866:Generated_Source\PSoC5/ADC_DelSig.c ****     }
 867:Generated_Source\PSoC5/ADC_DelSig.c ****     /* Clear conversion complete status in Single Sample mode with resolution above 16 bit */
 868:Generated_Source\PSoC5/ADC_DelSig.c ****     if(ADC_DelSig_stopConversion != 0u)
 1386              		.loc 1 868 0
 1387 0072 0B4B     		ldr	r3, .L71+16
 1388 0074 1B78     		ldrb	r3, [r3]
 1389 0076 DBB2     		uxtb	r3, r3
 1390 0078 002B     		cmp	r3, #0
 1391 007a 02D0     		beq	.L69
 869:Generated_Source\PSoC5/ADC_DelSig.c ****     {
 870:Generated_Source\PSoC5/ADC_DelSig.c ****         ADC_DelSig_convDone = 0u;
 1392              		.loc 1 870 0
 1393 007c 094B     		ldr	r3, .L71+20
 1394 007e 0022     		movs	r2, #0
 1395 0080 1A70     		strb	r2, [r3]
 1396              	.L69:
 871:Generated_Source\PSoC5/ADC_DelSig.c ****     }
 872:Generated_Source\PSoC5/ADC_DelSig.c **** 
 873:Generated_Source\PSoC5/ADC_DelSig.c ****     return ((int32)result);
 1397              		.loc 1 873 0
 1398 0082 7B68     		ldr	r3, [r7, #4]
 874:Generated_Source\PSoC5/ADC_DelSig.c **** }
 1399              		.loc 1 874 0
 1400 0084 1846     		mov	r0, r3
 1401 0086 0C37     		adds	r7, r7, #12
 1402              		.cfi_def_cfa_offset 4
 1403 0088 BD46     		mov	sp, r7
 1404              		.cfi_def_cfa_register 13
 1405              		@ sp needed
 1406 008a 80BC     		pop	{r7}
ARM GAS  C:\Users\rcaravac\AppData\Local\Temp\ccauAhrg.s 			page 41


 1407              		.cfi_restore 7
 1408              		.cfi_def_cfa_offset 0
 1409 008c 7047     		bx	lr
 1410              	.L72:
 1411 008e 00BF     		.align	2
 1412              	.L71:
 1413 0090 144E0040 		.word	1073761812
 1414 0094 124E0040 		.word	1073761810
 1415 0098 104E0040 		.word	1073761808
 1416 009c 114E0040 		.word	1073761809
 1417 00a0 00000000 		.word	ADC_DelSig_stopConversion
 1418 00a4 00000000 		.word	ADC_DelSig_convDone
 1419              		.cfi_endproc
 1420              	.LFE13:
 1421              		.size	ADC_DelSig_GetResult32, .-ADC_DelSig_GetResult32
 1422              		.section	.text.ADC_DelSig_SetOffset,"ax",%progbits
 1423              		.align	2
 1424              		.global	ADC_DelSig_SetOffset
 1425              		.thumb
 1426              		.thumb_func
 1427              		.type	ADC_DelSig_SetOffset, %function
 1428              	ADC_DelSig_SetOffset:
 1429              	.LFB14:
 875:Generated_Source\PSoC5/ADC_DelSig.c **** 
 876:Generated_Source\PSoC5/ADC_DelSig.c **** 
 877:Generated_Source\PSoC5/ADC_DelSig.c **** /*******************************************************************************
 878:Generated_Source\PSoC5/ADC_DelSig.c **** * Function Name: ADC_DelSig_SetOffset
 879:Generated_Source\PSoC5/ADC_DelSig.c **** ********************************************************************************
 880:Generated_Source\PSoC5/ADC_DelSig.c **** *
 881:Generated_Source\PSoC5/ADC_DelSig.c **** * Summary:
 882:Generated_Source\PSoC5/ADC_DelSig.c **** *  Sets the ADC offset which is used by the functions ADC_CountsTo_uVolts, 
 883:Generated_Source\PSoC5/ADC_DelSig.c **** *  ADC_CountsTo_mVolts, and ADC_CountsTo_Volts to subtract the offset from the 
 884:Generated_Source\PSoC5/ADC_DelSig.c **** *  given reading before calculating the voltage conversion.
 885:Generated_Source\PSoC5/ADC_DelSig.c **** *
 886:Generated_Source\PSoC5/ADC_DelSig.c **** * Parameters:
 887:Generated_Source\PSoC5/ADC_DelSig.c **** *  int32:  This value is a measured value when the inputs are shorted or 
 888:Generated_Source\PSoC5/ADC_DelSig.c **** *          connected to the same input voltage.
 889:Generated_Source\PSoC5/ADC_DelSig.c **** *
 890:Generated_Source\PSoC5/ADC_DelSig.c **** * Return:
 891:Generated_Source\PSoC5/ADC_DelSig.c **** *  None
 892:Generated_Source\PSoC5/ADC_DelSig.c **** *
 893:Generated_Source\PSoC5/ADC_DelSig.c **** * Global variables:
 894:Generated_Source\PSoC5/ADC_DelSig.c **** *  ADC_DelSig_Offset:  Modified to set the user provided offset. This
 895:Generated_Source\PSoC5/ADC_DelSig.c **** *  variable is used for offset calibration purpose.
 896:Generated_Source\PSoC5/ADC_DelSig.c **** *
 897:Generated_Source\PSoC5/ADC_DelSig.c **** * Side Effects:
 898:Generated_Source\PSoC5/ADC_DelSig.c **** *  Affects the ADC_DelSig_CountsTo_Volts,
 899:Generated_Source\PSoC5/ADC_DelSig.c **** *  ADC_DelSig_CountsTo_mVolts, ADC_DelSig_CountsTo_uVolts functions
 900:Generated_Source\PSoC5/ADC_DelSig.c **** *  by subtracting the given offset.
 901:Generated_Source\PSoC5/ADC_DelSig.c **** *
 902:Generated_Source\PSoC5/ADC_DelSig.c **** *******************************************************************************/
 903:Generated_Source\PSoC5/ADC_DelSig.c **** void ADC_DelSig_SetOffset(int32 offset) 
 904:Generated_Source\PSoC5/ADC_DelSig.c **** {
 1430              		.loc 1 904 0
 1431              		.cfi_startproc
 1432              		@ args = 0, pretend = 0, frame = 8
 1433              		@ frame_needed = 1, uses_anonymous_args = 0
ARM GAS  C:\Users\rcaravac\AppData\Local\Temp\ccauAhrg.s 			page 42


 1434              		@ link register save eliminated.
 1435 0000 80B4     		push	{r7}
 1436              		.cfi_def_cfa_offset 4
 1437              		.cfi_offset 7, -4
 1438 0002 83B0     		sub	sp, sp, #12
 1439              		.cfi_def_cfa_offset 16
 1440 0004 00AF     		add	r7, sp, #0
 1441              		.cfi_def_cfa_register 7
 1442 0006 7860     		str	r0, [r7, #4]
 905:Generated_Source\PSoC5/ADC_DelSig.c **** 
 906:Generated_Source\PSoC5/ADC_DelSig.c ****     ADC_DelSig_Offset = offset;
 1443              		.loc 1 906 0
 1444 0008 034A     		ldr	r2, .L74
 1445 000a 7B68     		ldr	r3, [r7, #4]
 1446 000c 1360     		str	r3, [r2]
 907:Generated_Source\PSoC5/ADC_DelSig.c **** }
 1447              		.loc 1 907 0
 1448 000e 00BF     		nop
 1449 0010 0C37     		adds	r7, r7, #12
 1450              		.cfi_def_cfa_offset 4
 1451 0012 BD46     		mov	sp, r7
 1452              		.cfi_def_cfa_register 13
 1453              		@ sp needed
 1454 0014 80BC     		pop	{r7}
 1455              		.cfi_restore 7
 1456              		.cfi_def_cfa_offset 0
 1457 0016 7047     		bx	lr
 1458              	.L75:
 1459              		.align	2
 1460              	.L74:
 1461 0018 00000000 		.word	ADC_DelSig_Offset
 1462              		.cfi_endproc
 1463              	.LFE14:
 1464              		.size	ADC_DelSig_SetOffset, .-ADC_DelSig_SetOffset
 1465              		.section	.text.ADC_DelSig_SetGain,"ax",%progbits
 1466              		.align	2
 1467              		.global	ADC_DelSig_SetGain
 1468              		.thumb
 1469              		.thumb_func
 1470              		.type	ADC_DelSig_SetGain, %function
 1471              	ADC_DelSig_SetGain:
 1472              	.LFB15:
 908:Generated_Source\PSoC5/ADC_DelSig.c **** 
 909:Generated_Source\PSoC5/ADC_DelSig.c **** 
 910:Generated_Source\PSoC5/ADC_DelSig.c **** /*******************************************************************************
 911:Generated_Source\PSoC5/ADC_DelSig.c **** * Function Name: ADC_DelSig_SetGain
 912:Generated_Source\PSoC5/ADC_DelSig.c **** ********************************************************************************
 913:Generated_Source\PSoC5/ADC_DelSig.c **** *
 914:Generated_Source\PSoC5/ADC_DelSig.c **** * Summary:
 915:Generated_Source\PSoC5/ADC_DelSig.c **** *  Sets the ADC gain in counts per volt for the voltage conversion
 916:Generated_Source\PSoC5/ADC_DelSig.c **** *  functions below. This value is set by default by the reference and
 917:Generated_Source\PSoC5/ADC_DelSig.c **** *  input range settings. It should only be used to further calibrate the
 918:Generated_Source\PSoC5/ADC_DelSig.c **** *  ADC with a known input or if an external reference is used. This
 919:Generated_Source\PSoC5/ADC_DelSig.c **** *  function may also be used to calibrate an entire signal chain, not
 920:Generated_Source\PSoC5/ADC_DelSig.c **** *  just the ADC.
 921:Generated_Source\PSoC5/ADC_DelSig.c **** *
 922:Generated_Source\PSoC5/ADC_DelSig.c **** * Parameters:
ARM GAS  C:\Users\rcaravac\AppData\Local\Temp\ccauAhrg.s 			page 43


 923:Generated_Source\PSoC5/ADC_DelSig.c **** *  int32: ADC gain in counts per volt.
 924:Generated_Source\PSoC5/ADC_DelSig.c **** *
 925:Generated_Source\PSoC5/ADC_DelSig.c **** * Return:
 926:Generated_Source\PSoC5/ADC_DelSig.c **** *  None
 927:Generated_Source\PSoC5/ADC_DelSig.c **** *
 928:Generated_Source\PSoC5/ADC_DelSig.c **** * Global variables:
 929:Generated_Source\PSoC5/ADC_DelSig.c **** *  ADC_DelSig_CountsPerVolt:  modified to set the ADC gain in counts
 930:Generated_Source\PSoC5/ADC_DelSig.c **** *   per volt.
 931:Generated_Source\PSoC5/ADC_DelSig.c **** *
 932:Generated_Source\PSoC5/ADC_DelSig.c **** * Side Effects:
 933:Generated_Source\PSoC5/ADC_DelSig.c **** *  Affects the ADC_DelSig_CountsTo_Volts,
 934:Generated_Source\PSoC5/ADC_DelSig.c **** *  ADC_DelSig_CountsTo_mVolts, ADC_DelSig_CountsTo_uVolts functions
 935:Generated_Source\PSoC5/ADC_DelSig.c **** *  supplying the correct conversion between ADC counts and voltage.
 936:Generated_Source\PSoC5/ADC_DelSig.c **** *
 937:Generated_Source\PSoC5/ADC_DelSig.c **** *******************************************************************************/
 938:Generated_Source\PSoC5/ADC_DelSig.c **** void ADC_DelSig_SetGain(int32 adcGain) 
 939:Generated_Source\PSoC5/ADC_DelSig.c **** {
 1473              		.loc 1 939 0
 1474              		.cfi_startproc
 1475              		@ args = 0, pretend = 0, frame = 8
 1476              		@ frame_needed = 1, uses_anonymous_args = 0
 1477              		@ link register save eliminated.
 1478 0000 80B4     		push	{r7}
 1479              		.cfi_def_cfa_offset 4
 1480              		.cfi_offset 7, -4
 1481 0002 83B0     		sub	sp, sp, #12
 1482              		.cfi_def_cfa_offset 16
 1483 0004 00AF     		add	r7, sp, #0
 1484              		.cfi_def_cfa_register 7
 1485 0006 7860     		str	r0, [r7, #4]
 940:Generated_Source\PSoC5/ADC_DelSig.c ****     ADC_DelSig_CountsPerVolt = adcGain;
 1486              		.loc 1 940 0
 1487 0008 034A     		ldr	r2, .L77
 1488 000a 7B68     		ldr	r3, [r7, #4]
 1489 000c 1360     		str	r3, [r2]
 941:Generated_Source\PSoC5/ADC_DelSig.c **** }
 1490              		.loc 1 941 0
 1491 000e 00BF     		nop
 1492 0010 0C37     		adds	r7, r7, #12
 1493              		.cfi_def_cfa_offset 4
 1494 0012 BD46     		mov	sp, r7
 1495              		.cfi_def_cfa_register 13
 1496              		@ sp needed
 1497 0014 80BC     		pop	{r7}
 1498              		.cfi_restore 7
 1499              		.cfi_def_cfa_offset 0
 1500 0016 7047     		bx	lr
 1501              	.L78:
 1502              		.align	2
 1503              	.L77:
 1504 0018 00000000 		.word	ADC_DelSig_CountsPerVolt
 1505              		.cfi_endproc
 1506              	.LFE15:
 1507              		.size	ADC_DelSig_SetGain, .-ADC_DelSig_SetGain
 1508              		.section	.text.ADC_DelSig_CountsTo_mVolts,"ax",%progbits
 1509              		.align	2
 1510              		.global	ADC_DelSig_CountsTo_mVolts
ARM GAS  C:\Users\rcaravac\AppData\Local\Temp\ccauAhrg.s 			page 44


 1511              		.thumb
 1512              		.thumb_func
 1513              		.type	ADC_DelSig_CountsTo_mVolts, %function
 1514              	ADC_DelSig_CountsTo_mVolts:
 1515              	.LFB16:
 942:Generated_Source\PSoC5/ADC_DelSig.c **** 
 943:Generated_Source\PSoC5/ADC_DelSig.c **** 
 944:Generated_Source\PSoC5/ADC_DelSig.c **** /*******************************************************************************
 945:Generated_Source\PSoC5/ADC_DelSig.c **** * Function Name: ADC_DelSig_CountsTo_mVolts
 946:Generated_Source\PSoC5/ADC_DelSig.c **** ********************************************************************************
 947:Generated_Source\PSoC5/ADC_DelSig.c **** *
 948:Generated_Source\PSoC5/ADC_DelSig.c **** * Summary:
 949:Generated_Source\PSoC5/ADC_DelSig.c **** *  Converts the ADC counts output to mVolts as a 16-bit integer. For
 950:Generated_Source\PSoC5/ADC_DelSig.c **** *  example, if the ADC measured 0.534 volts, the return value would
 951:Generated_Source\PSoC5/ADC_DelSig.c **** *  be 534 mVolts.
 952:Generated_Source\PSoC5/ADC_DelSig.c **** *
 953:Generated_Source\PSoC5/ADC_DelSig.c **** * Parameters:
 954:Generated_Source\PSoC5/ADC_DelSig.c **** *  int32: adcCounts Result from the ADC conversion.
 955:Generated_Source\PSoC5/ADC_DelSig.c **** *
 956:Generated_Source\PSoC5/ADC_DelSig.c **** * Return:
 957:Generated_Source\PSoC5/ADC_DelSig.c **** *  int16:  Result in mVolts
 958:Generated_Source\PSoC5/ADC_DelSig.c **** *
 959:Generated_Source\PSoC5/ADC_DelSig.c **** * Global variables:
 960:Generated_Source\PSoC5/ADC_DelSig.c **** *  ADC_DelSig_CountsPerVolt:  used to convert ADC counts to mVolts.
 961:Generated_Source\PSoC5/ADC_DelSig.c **** *  ADC_DelSig_Offset:  Used as the offset while converting ADC counts
 962:Generated_Source\PSoC5/ADC_DelSig.c **** *   to mVolts.
 963:Generated_Source\PSoC5/ADC_DelSig.c **** *
 964:Generated_Source\PSoC5/ADC_DelSig.c **** *******************************************************************************/
 965:Generated_Source\PSoC5/ADC_DelSig.c **** int16 ADC_DelSig_CountsTo_mVolts(int32 adcCounts) 
 966:Generated_Source\PSoC5/ADC_DelSig.c **** {
 1516              		.loc 1 966 0
 1517              		.cfi_startproc
 1518              		@ args = 0, pretend = 0, frame = 16
 1519              		@ frame_needed = 1, uses_anonymous_args = 0
 1520              		@ link register save eliminated.
 1521 0000 80B4     		push	{r7}
 1522              		.cfi_def_cfa_offset 4
 1523              		.cfi_offset 7, -4
 1524 0002 85B0     		sub	sp, sp, #20
 1525              		.cfi_def_cfa_offset 24
 1526 0004 00AF     		add	r7, sp, #0
 1527              		.cfi_def_cfa_register 7
 1528 0006 7860     		str	r0, [r7, #4]
 967:Generated_Source\PSoC5/ADC_DelSig.c **** 
 968:Generated_Source\PSoC5/ADC_DelSig.c ****     int16 mVolts;
 969:Generated_Source\PSoC5/ADC_DelSig.c **** 
 970:Generated_Source\PSoC5/ADC_DelSig.c ****     /* Convert adcCounts to the right align if left option selected */
 971:Generated_Source\PSoC5/ADC_DelSig.c ****     #if(ADC_DelSig_CFG1_DEC_DIV != 0)
 972:Generated_Source\PSoC5/ADC_DelSig.c ****         if(ADC_DelSig_Config == ADC_DelSig_CFG1)
 973:Generated_Source\PSoC5/ADC_DelSig.c ****         {
 974:Generated_Source\PSoC5/ADC_DelSig.c ****             adcCounts /= ADC_DelSig_CFG1_DEC_DIV;
 975:Generated_Source\PSoC5/ADC_DelSig.c ****         }
 976:Generated_Source\PSoC5/ADC_DelSig.c ****     #endif /* ADC_DelSig_CFG1_DEC_DIV */
 977:Generated_Source\PSoC5/ADC_DelSig.c ****     #if((ADC_DelSig_CFG2_DEC_DIV != 0) && (ADC_DelSig_DEFAULT_NUM_CONFIGS > 1))
 978:Generated_Source\PSoC5/ADC_DelSig.c ****         if(ADC_DelSig_Config == ADC_DelSig_CFG2)
 979:Generated_Source\PSoC5/ADC_DelSig.c ****         {
 980:Generated_Source\PSoC5/ADC_DelSig.c ****             adcCounts /= ADC_DelSig_CFG2_DEC_DIV;
ARM GAS  C:\Users\rcaravac\AppData\Local\Temp\ccauAhrg.s 			page 45


 981:Generated_Source\PSoC5/ADC_DelSig.c ****         }
 982:Generated_Source\PSoC5/ADC_DelSig.c ****     #endif /* ADC_DelSig_CFG2_DEC_DIV */
 983:Generated_Source\PSoC5/ADC_DelSig.c ****     #if((ADC_DelSig_CFG3_DEC_DIV != 0) && (ADC_DelSig_DEFAULT_NUM_CONFIGS > 2))
 984:Generated_Source\PSoC5/ADC_DelSig.c ****         if(ADC_DelSig_Config == ADC_DelSig_CFG3)
 985:Generated_Source\PSoC5/ADC_DelSig.c ****         {
 986:Generated_Source\PSoC5/ADC_DelSig.c ****             adcCounts /= ADC_DelSig_CFG3_DEC_DIV;
 987:Generated_Source\PSoC5/ADC_DelSig.c ****         }
 988:Generated_Source\PSoC5/ADC_DelSig.c ****     #endif /* ADC_DelSig_CFG2_DEC_DIV */
 989:Generated_Source\PSoC5/ADC_DelSig.c ****     #if((ADC_DelSig_CFG4_DEC_DIV != 0) && (ADC_DelSig_DEFAULT_NUM_CONFIGS > 3))
 990:Generated_Source\PSoC5/ADC_DelSig.c ****         if(ADC_DelSig_Config == ADC_DelSig_CFG4)
 991:Generated_Source\PSoC5/ADC_DelSig.c ****         {
 992:Generated_Source\PSoC5/ADC_DelSig.c ****             adcCounts /= ADC_DelSig_CFG4_DEC_DIV;
 993:Generated_Source\PSoC5/ADC_DelSig.c ****         }
 994:Generated_Source\PSoC5/ADC_DelSig.c ****     #endif /* ADC_DelSig_CFG2_DEC_DIV */
 995:Generated_Source\PSoC5/ADC_DelSig.c **** 
 996:Generated_Source\PSoC5/ADC_DelSig.c ****     /* Subtract ADC offset */
 997:Generated_Source\PSoC5/ADC_DelSig.c ****     adcCounts -= ADC_DelSig_Offset;
 1529              		.loc 1 997 0
 1530 0008 0A4B     		ldr	r3, .L81
 1531 000a 1B68     		ldr	r3, [r3]
 1532 000c 7A68     		ldr	r2, [r7, #4]
 1533 000e D31A     		subs	r3, r2, r3
 1534 0010 7B60     		str	r3, [r7, #4]
 998:Generated_Source\PSoC5/ADC_DelSig.c **** 
 999:Generated_Source\PSoC5/ADC_DelSig.c ****     mVolts = (int16)(( adcCounts * ADC_DelSig_1MV_COUNTS ) / ADC_DelSig_CountsPerVolt) ;
 1535              		.loc 1 999 0
 1536 0012 7B68     		ldr	r3, [r7, #4]
 1537 0014 4FF47A72 		mov	r2, #1000
 1538 0018 02FB03F2 		mul	r2, r2, r3
 1539 001c 064B     		ldr	r3, .L81+4
 1540 001e 1B68     		ldr	r3, [r3]
 1541 0020 92FBF3F3 		sdiv	r3, r2, r3
 1542 0024 FB81     		strh	r3, [r7, #14]	@ movhi
1000:Generated_Source\PSoC5/ADC_DelSig.c **** 
1001:Generated_Source\PSoC5/ADC_DelSig.c ****     return(mVolts);
 1543              		.loc 1 1001 0
 1544 0026 B7F90E30 		ldrsh	r3, [r7, #14]
1002:Generated_Source\PSoC5/ADC_DelSig.c **** }
 1545              		.loc 1 1002 0
 1546 002a 1846     		mov	r0, r3
 1547 002c 1437     		adds	r7, r7, #20
 1548              		.cfi_def_cfa_offset 4
 1549 002e BD46     		mov	sp, r7
 1550              		.cfi_def_cfa_register 13
 1551              		@ sp needed
 1552 0030 80BC     		pop	{r7}
 1553              		.cfi_restore 7
 1554              		.cfi_def_cfa_offset 0
 1555 0032 7047     		bx	lr
 1556              	.L82:
 1557              		.align	2
 1558              	.L81:
 1559 0034 00000000 		.word	ADC_DelSig_Offset
 1560 0038 00000000 		.word	ADC_DelSig_CountsPerVolt
 1561              		.cfi_endproc
 1562              	.LFE16:
 1563              		.size	ADC_DelSig_CountsTo_mVolts, .-ADC_DelSig_CountsTo_mVolts
ARM GAS  C:\Users\rcaravac\AppData\Local\Temp\ccauAhrg.s 			page 46


 1564              		.global	__aeabi_i2f
 1565              		.section	.text.ADC_DelSig_CountsTo_Volts,"ax",%progbits
 1566              		.align	2
 1567              		.global	ADC_DelSig_CountsTo_Volts
 1568              		.thumb
 1569              		.thumb_func
 1570              		.type	ADC_DelSig_CountsTo_Volts, %function
 1571              	ADC_DelSig_CountsTo_Volts:
 1572              	.LFB17:
1003:Generated_Source\PSoC5/ADC_DelSig.c **** 
1004:Generated_Source\PSoC5/ADC_DelSig.c **** 
1005:Generated_Source\PSoC5/ADC_DelSig.c **** /*******************************************************************************
1006:Generated_Source\PSoC5/ADC_DelSig.c **** * Function Name: ADC_DelSig_CountsTo_Volts
1007:Generated_Source\PSoC5/ADC_DelSig.c **** ********************************************************************************
1008:Generated_Source\PSoC5/ADC_DelSig.c **** *
1009:Generated_Source\PSoC5/ADC_DelSig.c **** * Summary:
1010:Generated_Source\PSoC5/ADC_DelSig.c **** *  Converts the ADC output to Volts as a floating point number. For
1011:Generated_Source\PSoC5/ADC_DelSig.c **** *  example, if the ADC measure a voltage of 1.2345 Volts, the
1012:Generated_Source\PSoC5/ADC_DelSig.c **** *  returned result would be +1.2345 Volts.
1013:Generated_Source\PSoC5/ADC_DelSig.c **** *
1014:Generated_Source\PSoC5/ADC_DelSig.c **** * Parameters:
1015:Generated_Source\PSoC5/ADC_DelSig.c **** *  int32 adcCounts:  Result from the ADC conversion.
1016:Generated_Source\PSoC5/ADC_DelSig.c **** *
1017:Generated_Source\PSoC5/ADC_DelSig.c **** * Return:
1018:Generated_Source\PSoC5/ADC_DelSig.c **** *  float32: Result in Volts
1019:Generated_Source\PSoC5/ADC_DelSig.c **** *
1020:Generated_Source\PSoC5/ADC_DelSig.c **** * Global variables:
1021:Generated_Source\PSoC5/ADC_DelSig.c **** *  ADC_DelSig_CountsPerVolt:  used to convert to Volts.
1022:Generated_Source\PSoC5/ADC_DelSig.c **** *  ADC_DelSig_Offset:  Used as the offset while converting ADC counts
1023:Generated_Source\PSoC5/ADC_DelSig.c **** *   to Volts.
1024:Generated_Source\PSoC5/ADC_DelSig.c **** *
1025:Generated_Source\PSoC5/ADC_DelSig.c **** *******************************************************************************/
1026:Generated_Source\PSoC5/ADC_DelSig.c **** float32 ADC_DelSig_CountsTo_Volts(int32 adcCounts) 
1027:Generated_Source\PSoC5/ADC_DelSig.c **** {
 1573              		.loc 1 1027 0
 1574              		.cfi_startproc
 1575              		@ args = 0, pretend = 0, frame = 16
 1576              		@ frame_needed = 1, uses_anonymous_args = 0
 1577 0000 90B5     		push	{r4, r7, lr}
 1578              		.cfi_def_cfa_offset 12
 1579              		.cfi_offset 4, -12
 1580              		.cfi_offset 7, -8
 1581              		.cfi_offset 14, -4
 1582 0002 85B0     		sub	sp, sp, #20
 1583              		.cfi_def_cfa_offset 32
 1584 0004 00AF     		add	r7, sp, #0
 1585              		.cfi_def_cfa_register 7
 1586 0006 7860     		str	r0, [r7, #4]
1028:Generated_Source\PSoC5/ADC_DelSig.c **** 
1029:Generated_Source\PSoC5/ADC_DelSig.c ****     float32 Volts;
1030:Generated_Source\PSoC5/ADC_DelSig.c **** 
1031:Generated_Source\PSoC5/ADC_DelSig.c ****     /* Convert adcCounts to the right align if left option selected */
1032:Generated_Source\PSoC5/ADC_DelSig.c ****     #if(ADC_DelSig_CFG1_DEC_DIV != 0)
1033:Generated_Source\PSoC5/ADC_DelSig.c ****         if(ADC_DelSig_Config == ADC_DelSig_CFG1)
1034:Generated_Source\PSoC5/ADC_DelSig.c ****         {
1035:Generated_Source\PSoC5/ADC_DelSig.c ****             adcCounts /= ADC_DelSig_CFG1_DEC_DIV;
1036:Generated_Source\PSoC5/ADC_DelSig.c ****         }
ARM GAS  C:\Users\rcaravac\AppData\Local\Temp\ccauAhrg.s 			page 47


1037:Generated_Source\PSoC5/ADC_DelSig.c ****     #endif /* ADC_DelSig_CFG1_DEC_DIV */
1038:Generated_Source\PSoC5/ADC_DelSig.c ****     #if((ADC_DelSig_CFG2_DEC_DIV != 0) && (ADC_DelSig_DEFAULT_NUM_CONFIGS > 1))
1039:Generated_Source\PSoC5/ADC_DelSig.c ****         if(ADC_DelSig_Config == ADC_DelSig_CFG2)
1040:Generated_Source\PSoC5/ADC_DelSig.c ****         {
1041:Generated_Source\PSoC5/ADC_DelSig.c ****             adcCounts /= ADC_DelSig_CFG2_DEC_DIV;
1042:Generated_Source\PSoC5/ADC_DelSig.c ****         }
1043:Generated_Source\PSoC5/ADC_DelSig.c ****     #endif /* ADC_DelSig_CFG2_DEC_DIV */
1044:Generated_Source\PSoC5/ADC_DelSig.c ****     #if((ADC_DelSig_CFG3_DEC_DIV != 0) && (ADC_DelSig_DEFAULT_NUM_CONFIGS > 2))
1045:Generated_Source\PSoC5/ADC_DelSig.c ****         if(ADC_DelSig_Config == ADC_DelSig_CFG3)
1046:Generated_Source\PSoC5/ADC_DelSig.c ****         {
1047:Generated_Source\PSoC5/ADC_DelSig.c ****             adcCounts /= ADC_DelSig_CFG3_DEC_DIV;
1048:Generated_Source\PSoC5/ADC_DelSig.c ****         }
1049:Generated_Source\PSoC5/ADC_DelSig.c ****     #endif /* ADC_DelSig_CFG2_DEC_DIV */
1050:Generated_Source\PSoC5/ADC_DelSig.c ****     #if((ADC_DelSig_CFG4_DEC_DIV != 0) && (ADC_DelSig_DEFAULT_NUM_CONFIGS > 3))
1051:Generated_Source\PSoC5/ADC_DelSig.c ****         if(ADC_DelSig_Config == ADC_DelSig_CFG4)
1052:Generated_Source\PSoC5/ADC_DelSig.c ****         {
1053:Generated_Source\PSoC5/ADC_DelSig.c ****             adcCounts /= ADC_DelSig_CFG4_DEC_DIV;
1054:Generated_Source\PSoC5/ADC_DelSig.c ****         }
1055:Generated_Source\PSoC5/ADC_DelSig.c ****     #endif /* ADC_DelSig_CFG2_DEC_DIV */
1056:Generated_Source\PSoC5/ADC_DelSig.c **** 
1057:Generated_Source\PSoC5/ADC_DelSig.c ****     /* Subtract ADC offset */
1058:Generated_Source\PSoC5/ADC_DelSig.c ****     adcCounts -= ADC_DelSig_Offset;
 1587              		.loc 1 1058 0
 1588 0008 0C4B     		ldr	r3, .L85
 1589 000a 1B68     		ldr	r3, [r3]
 1590 000c 7A68     		ldr	r2, [r7, #4]
 1591 000e D31A     		subs	r3, r2, r3
 1592 0010 7B60     		str	r3, [r7, #4]
1059:Generated_Source\PSoC5/ADC_DelSig.c **** 
1060:Generated_Source\PSoC5/ADC_DelSig.c ****     Volts = (float32)adcCounts / (float32)ADC_DelSig_CountsPerVolt;
 1593              		.loc 1 1060 0
 1594 0012 7868     		ldr	r0, [r7, #4]
 1595 0014 FFF7FEFF 		bl	__aeabi_i2f
 1596 0018 0446     		mov	r4, r0
 1597 001a 094B     		ldr	r3, .L85+4
 1598 001c 1B68     		ldr	r3, [r3]
 1599 001e 1846     		mov	r0, r3
 1600 0020 FFF7FEFF 		bl	__aeabi_i2f
 1601 0024 0346     		mov	r3, r0
 1602 0026 1946     		mov	r1, r3
 1603 0028 2046     		mov	r0, r4
 1604 002a FFF7FEFF 		bl	__aeabi_fdiv
 1605 002e 0346     		mov	r3, r0
 1606 0030 FB60     		str	r3, [r7, #12]	@ float
1061:Generated_Source\PSoC5/ADC_DelSig.c **** 
1062:Generated_Source\PSoC5/ADC_DelSig.c ****     return( Volts );
 1607              		.loc 1 1062 0
 1608 0032 FB68     		ldr	r3, [r7, #12]	@ float
1063:Generated_Source\PSoC5/ADC_DelSig.c **** }
 1609              		.loc 1 1063 0
 1610 0034 1846     		mov	r0, r3
 1611 0036 1437     		adds	r7, r7, #20
 1612              		.cfi_def_cfa_offset 12
 1613 0038 BD46     		mov	sp, r7
 1614              		.cfi_def_cfa_register 13
 1615              		@ sp needed
 1616 003a 90BD     		pop	{r4, r7, pc}
ARM GAS  C:\Users\rcaravac\AppData\Local\Temp\ccauAhrg.s 			page 48


 1617              	.L86:
 1618              		.align	2
 1619              	.L85:
 1620 003c 00000000 		.word	ADC_DelSig_Offset
 1621 0040 00000000 		.word	ADC_DelSig_CountsPerVolt
 1622              		.cfi_endproc
 1623              	.LFE17:
 1624              		.size	ADC_DelSig_CountsTo_Volts, .-ADC_DelSig_CountsTo_Volts
 1625              		.section	.text.ADC_DelSig_CountsTo_uVolts,"ax",%progbits
 1626              		.align	2
 1627              		.global	ADC_DelSig_CountsTo_uVolts
 1628              		.thumb
 1629              		.thumb_func
 1630              		.type	ADC_DelSig_CountsTo_uVolts, %function
 1631              	ADC_DelSig_CountsTo_uVolts:
 1632              	.LFB18:
1064:Generated_Source\PSoC5/ADC_DelSig.c **** 
1065:Generated_Source\PSoC5/ADC_DelSig.c **** 
1066:Generated_Source\PSoC5/ADC_DelSig.c **** /*******************************************************************************
1067:Generated_Source\PSoC5/ADC_DelSig.c **** * Function Name: ADC_DelSig_CountsTo_uVolts
1068:Generated_Source\PSoC5/ADC_DelSig.c **** ********************************************************************************
1069:Generated_Source\PSoC5/ADC_DelSig.c **** *
1070:Generated_Source\PSoC5/ADC_DelSig.c **** * Summary:
1071:Generated_Source\PSoC5/ADC_DelSig.c **** *  Converts the ADC output to uVolts as a 32-bit integer. For example,
1072:Generated_Source\PSoC5/ADC_DelSig.c **** *  if the ADC measured -0.02345 Volts, the return value would be -23450 uVolts.
1073:Generated_Source\PSoC5/ADC_DelSig.c **** *
1074:Generated_Source\PSoC5/ADC_DelSig.c **** * Parameters:
1075:Generated_Source\PSoC5/ADC_DelSig.c **** *  int32 adcCounts: Result from the ADC conversion.
1076:Generated_Source\PSoC5/ADC_DelSig.c **** *
1077:Generated_Source\PSoC5/ADC_DelSig.c **** * Return:
1078:Generated_Source\PSoC5/ADC_DelSig.c **** *  int32:  Result in uVolts
1079:Generated_Source\PSoC5/ADC_DelSig.c **** *
1080:Generated_Source\PSoC5/ADC_DelSig.c **** * Global variables:
1081:Generated_Source\PSoC5/ADC_DelSig.c **** *  ADC_DelSig_CountsPerVolt:  used to convert ADC counts to mVolts.
1082:Generated_Source\PSoC5/ADC_DelSig.c **** *  ADC_DelSig_Offset:  Used as the offset while converting ADC counts
1083:Generated_Source\PSoC5/ADC_DelSig.c **** *   to mVolts.
1084:Generated_Source\PSoC5/ADC_DelSig.c **** *
1085:Generated_Source\PSoC5/ADC_DelSig.c **** * Theory:
1086:Generated_Source\PSoC5/ADC_DelSig.c **** *  Care must be taken to not exceed the maximum value for a 31 bit signed
1087:Generated_Source\PSoC5/ADC_DelSig.c **** *  number in the conversion to uVolts and at the same time not lose resolution.
1088:Generated_Source\PSoC5/ADC_DelSig.c **** *
1089:Generated_Source\PSoC5/ADC_DelSig.c **** *  uVolts = ((A * adcCounts) / ((int32)ADC_DelSig_CountsPerVolt / B));
1090:Generated_Source\PSoC5/ADC_DelSig.c **** *
1091:Generated_Source\PSoC5/ADC_DelSig.c **** *******************************************************************************/
1092:Generated_Source\PSoC5/ADC_DelSig.c **** int32 ADC_DelSig_CountsTo_uVolts(int32 adcCounts) 
1093:Generated_Source\PSoC5/ADC_DelSig.c **** {
 1633              		.loc 1 1093 0
 1634              		.cfi_startproc
 1635              		@ args = 0, pretend = 0, frame = 24
 1636              		@ frame_needed = 1, uses_anonymous_args = 0
 1637              		@ link register save eliminated.
 1638 0000 80B4     		push	{r7}
 1639              		.cfi_def_cfa_offset 4
 1640              		.cfi_offset 7, -4
 1641 0002 87B0     		sub	sp, sp, #28
 1642              		.cfi_def_cfa_offset 32
 1643 0004 00AF     		add	r7, sp, #0
ARM GAS  C:\Users\rcaravac\AppData\Local\Temp\ccauAhrg.s 			page 49


 1644              		.cfi_def_cfa_register 7
 1645 0006 7860     		str	r0, [r7, #4]
1094:Generated_Source\PSoC5/ADC_DelSig.c **** 
1095:Generated_Source\PSoC5/ADC_DelSig.c ****     int32 uVolts;
1096:Generated_Source\PSoC5/ADC_DelSig.c ****     int32 coefA;
1097:Generated_Source\PSoC5/ADC_DelSig.c ****     int32 coefB;
1098:Generated_Source\PSoC5/ADC_DelSig.c ****     uint8 resolution;
1099:Generated_Source\PSoC5/ADC_DelSig.c **** 
1100:Generated_Source\PSoC5/ADC_DelSig.c ****     /* Set the resolution based on the configuration */
1101:Generated_Source\PSoC5/ADC_DelSig.c ****     /* Convert adcCounts to the right align if left option selected */
1102:Generated_Source\PSoC5/ADC_DelSig.c ****     if (ADC_DelSig_Config == ADC_DelSig_CFG1)
 1646              		.loc 1 1102 0
 1647 0008 224B     		ldr	r3, .L97
 1648 000a 1B78     		ldrb	r3, [r3]
 1649 000c DBB2     		uxtb	r3, r3
 1650 000e 012B     		cmp	r3, #1
 1651 0010 02D1     		bne	.L88
1103:Generated_Source\PSoC5/ADC_DelSig.c ****     {
1104:Generated_Source\PSoC5/ADC_DelSig.c ****         resolution = ADC_DelSig_CFG1_RESOLUTION;
 1652              		.loc 1 1104 0
 1653 0012 0823     		movs	r3, #8
 1654 0014 FB73     		strb	r3, [r7, #15]
 1655 0016 11E0     		b	.L89
 1656              	.L88:
1105:Generated_Source\PSoC5/ADC_DelSig.c ****         #if(ADC_DelSig_CFG1_DEC_DIV != 0)
1106:Generated_Source\PSoC5/ADC_DelSig.c ****             adcCounts /= ADC_DelSig_CFG1_DEC_DIV;
1107:Generated_Source\PSoC5/ADC_DelSig.c ****         #endif /* ADC_DelSig_CFG1_DEC_DIV */
1108:Generated_Source\PSoC5/ADC_DelSig.c ****     }
1109:Generated_Source\PSoC5/ADC_DelSig.c ****     else if (ADC_DelSig_Config == ADC_DelSig_CFG2)
 1657              		.loc 1 1109 0
 1658 0018 1E4B     		ldr	r3, .L97
 1659 001a 1B78     		ldrb	r3, [r3]
 1660 001c DBB2     		uxtb	r3, r3
 1661 001e 022B     		cmp	r3, #2
 1662 0020 02D1     		bne	.L90
1110:Generated_Source\PSoC5/ADC_DelSig.c ****     {
1111:Generated_Source\PSoC5/ADC_DelSig.c ****         resolution = ADC_DelSig_CFG2_RESOLUTION;
 1663              		.loc 1 1111 0
 1664 0022 1023     		movs	r3, #16
 1665 0024 FB73     		strb	r3, [r7, #15]
 1666 0026 09E0     		b	.L89
 1667              	.L90:
1112:Generated_Source\PSoC5/ADC_DelSig.c ****         #if(ADC_DelSig_CFG2_DEC_DIV != 0)
1113:Generated_Source\PSoC5/ADC_DelSig.c ****             adcCounts /= ADC_DelSig_CFG2_DEC_DIV;
1114:Generated_Source\PSoC5/ADC_DelSig.c ****         #endif /* ADC_DelSig_CFG2_DEC_DIV */
1115:Generated_Source\PSoC5/ADC_DelSig.c ****     }
1116:Generated_Source\PSoC5/ADC_DelSig.c ****     else if (ADC_DelSig_Config == ADC_DelSig_CFG3)
 1668              		.loc 1 1116 0
 1669 0028 1A4B     		ldr	r3, .L97
 1670 002a 1B78     		ldrb	r3, [r3]
 1671 002c DBB2     		uxtb	r3, r3
 1672 002e 032B     		cmp	r3, #3
 1673 0030 02D1     		bne	.L91
1117:Generated_Source\PSoC5/ADC_DelSig.c ****     {
1118:Generated_Source\PSoC5/ADC_DelSig.c ****         resolution = ADC_DelSig_CFG3_RESOLUTION;
 1674              		.loc 1 1118 0
 1675 0032 1023     		movs	r3, #16
ARM GAS  C:\Users\rcaravac\AppData\Local\Temp\ccauAhrg.s 			page 50


 1676 0034 FB73     		strb	r3, [r7, #15]
 1677 0036 01E0     		b	.L89
 1678              	.L91:
1119:Generated_Source\PSoC5/ADC_DelSig.c ****         #if(ADC_DelSig_CFG3_DEC_DIV != 0)
1120:Generated_Source\PSoC5/ADC_DelSig.c ****             adcCounts /= ADC_DelSig_CFG3_DEC_DIV;
1121:Generated_Source\PSoC5/ADC_DelSig.c ****         #endif /* ADC_DelSig_CFG3_DEC_DIV */
1122:Generated_Source\PSoC5/ADC_DelSig.c ****     }
1123:Generated_Source\PSoC5/ADC_DelSig.c ****     else
1124:Generated_Source\PSoC5/ADC_DelSig.c ****     {
1125:Generated_Source\PSoC5/ADC_DelSig.c ****         resolution = ADC_DelSig_CFG4_RESOLUTION;
 1679              		.loc 1 1125 0
 1680 0038 1023     		movs	r3, #16
 1681 003a FB73     		strb	r3, [r7, #15]
 1682              	.L89:
1126:Generated_Source\PSoC5/ADC_DelSig.c ****         #if(ADC_DelSig_CFG4_DEC_DIV != 0)
1127:Generated_Source\PSoC5/ADC_DelSig.c ****             adcCounts /= ADC_DelSig_CFG4_DEC_DIV;
1128:Generated_Source\PSoC5/ADC_DelSig.c ****         #endif /* ADC_DelSig_CFG4_DEC_DIV */
1129:Generated_Source\PSoC5/ADC_DelSig.c ****     }
1130:Generated_Source\PSoC5/ADC_DelSig.c **** 
1131:Generated_Source\PSoC5/ADC_DelSig.c ****     switch (resolution)
 1683              		.loc 1 1131 0
 1684 003c FB7B     		ldrb	r3, [r7, #15]	@ zero_extendqisi2
 1685 003e 102B     		cmp	r3, #16
 1686 0040 05D1     		bne	.L96
1132:Generated_Source\PSoC5/ADC_DelSig.c ****     {
1133:Generated_Source\PSoC5/ADC_DelSig.c ****         #if( (ADC_DelSig_CFG1_RESOLUTION == ADC_DelSig__BITS_12) || \
1134:Generated_Source\PSoC5/ADC_DelSig.c ****              (ADC_DelSig_CFG2_RESOLUTION == ADC_DelSig__BITS_12) || \
1135:Generated_Source\PSoC5/ADC_DelSig.c ****              (ADC_DelSig_CFG3_RESOLUTION == ADC_DelSig__BITS_12) || \
1136:Generated_Source\PSoC5/ADC_DelSig.c ****              (ADC_DelSig_CFG4_RESOLUTION == ADC_DelSig__BITS_12) )
1137:Generated_Source\PSoC5/ADC_DelSig.c ****             case (uint8)ADC_DelSig__BITS_12:
1138:Generated_Source\PSoC5/ADC_DelSig.c ****                 coefA = ADC_DelSig_1UV_COUNTS / ADC_DelSig_DIVISOR_2;
1139:Generated_Source\PSoC5/ADC_DelSig.c ****                 coefB = ADC_DelSig_DIVISOR_2;
1140:Generated_Source\PSoC5/ADC_DelSig.c ****                 break;
1141:Generated_Source\PSoC5/ADC_DelSig.c ****         #endif /* ADC_DelSig__BITS_12 */    
1142:Generated_Source\PSoC5/ADC_DelSig.c ****         #if( (ADC_DelSig_CFG1_RESOLUTION == ADC_DelSig__BITS_13) || \
1143:Generated_Source\PSoC5/ADC_DelSig.c ****              (ADC_DelSig_CFG2_RESOLUTION == ADC_DelSig__BITS_13) || \
1144:Generated_Source\PSoC5/ADC_DelSig.c ****              (ADC_DelSig_CFG3_RESOLUTION == ADC_DelSig__BITS_13) || \
1145:Generated_Source\PSoC5/ADC_DelSig.c ****              (ADC_DelSig_CFG4_RESOLUTION == ADC_DelSig__BITS_13) )
1146:Generated_Source\PSoC5/ADC_DelSig.c ****             case (uint8)ADC_DelSig__BITS_13:
1147:Generated_Source\PSoC5/ADC_DelSig.c ****                 coefA = ADC_DelSig_1UV_COUNTS / ADC_DelSig_DIVISOR_4;
1148:Generated_Source\PSoC5/ADC_DelSig.c ****                 coefB = ADC_DelSig_DIVISOR_4;
1149:Generated_Source\PSoC5/ADC_DelSig.c ****                 break;
1150:Generated_Source\PSoC5/ADC_DelSig.c ****         #endif /* ADC_DelSig__BITS_13 */    
1151:Generated_Source\PSoC5/ADC_DelSig.c ****         #if( (ADC_DelSig_CFG1_RESOLUTION == ADC_DelSig__BITS_14) || \
1152:Generated_Source\PSoC5/ADC_DelSig.c ****              (ADC_DelSig_CFG2_RESOLUTION == ADC_DelSig__BITS_14) || \
1153:Generated_Source\PSoC5/ADC_DelSig.c ****              (ADC_DelSig_CFG3_RESOLUTION == ADC_DelSig__BITS_14) || \
1154:Generated_Source\PSoC5/ADC_DelSig.c ****              (ADC_DelSig_CFG4_RESOLUTION == ADC_DelSig__BITS_14) )
1155:Generated_Source\PSoC5/ADC_DelSig.c ****             case (uint8)ADC_DelSig__BITS_14:
1156:Generated_Source\PSoC5/ADC_DelSig.c ****                 coefA = ADC_DelSig_1UV_COUNTS / ADC_DelSig_DIVISOR_8;
1157:Generated_Source\PSoC5/ADC_DelSig.c ****                 coefB = ADC_DelSig_DIVISOR_8;
1158:Generated_Source\PSoC5/ADC_DelSig.c ****                 break;
1159:Generated_Source\PSoC5/ADC_DelSig.c ****         #endif /* ADC_DelSig__BITS_14 */    
1160:Generated_Source\PSoC5/ADC_DelSig.c ****         #if( (ADC_DelSig_CFG1_RESOLUTION == ADC_DelSig__BITS_15) || \
1161:Generated_Source\PSoC5/ADC_DelSig.c ****              (ADC_DelSig_CFG2_RESOLUTION == ADC_DelSig__BITS_15) || \
1162:Generated_Source\PSoC5/ADC_DelSig.c ****              (ADC_DelSig_CFG3_RESOLUTION == ADC_DelSig__BITS_15) || \
1163:Generated_Source\PSoC5/ADC_DelSig.c ****              (ADC_DelSig_CFG4_RESOLUTION == ADC_DelSig__BITS_15) )
1164:Generated_Source\PSoC5/ADC_DelSig.c ****             case (uint8)ADC_DelSig__BITS_15:
ARM GAS  C:\Users\rcaravac\AppData\Local\Temp\ccauAhrg.s 			page 51


1165:Generated_Source\PSoC5/ADC_DelSig.c ****                 coefA = ADC_DelSig_1UV_COUNTS / ADC_DelSig_DIVISOR_16;
1166:Generated_Source\PSoC5/ADC_DelSig.c ****                 coefB = ADC_DelSig_DIVISOR_16;
1167:Generated_Source\PSoC5/ADC_DelSig.c ****                 break;
1168:Generated_Source\PSoC5/ADC_DelSig.c ****         #endif /* ADC_DelSig__BITS_15 */    
1169:Generated_Source\PSoC5/ADC_DelSig.c ****         #if( (ADC_DelSig_CFG1_RESOLUTION == ADC_DelSig__BITS_16) || \
1170:Generated_Source\PSoC5/ADC_DelSig.c ****              (ADC_DelSig_CFG2_RESOLUTION == ADC_DelSig__BITS_16) || \
1171:Generated_Source\PSoC5/ADC_DelSig.c ****              (ADC_DelSig_CFG3_RESOLUTION == ADC_DelSig__BITS_16) || \
1172:Generated_Source\PSoC5/ADC_DelSig.c ****              (ADC_DelSig_CFG4_RESOLUTION == ADC_DelSig__BITS_16) )
1173:Generated_Source\PSoC5/ADC_DelSig.c ****             case (uint8)ADC_DelSig__BITS_16:
1174:Generated_Source\PSoC5/ADC_DelSig.c ****                 coefA = ADC_DelSig_1UV_COUNTS / ADC_DelSig_DIVISOR_32;
 1687              		.loc 1 1174 0
 1688 0042 47F61223 		movw	r3, #31250
 1689 0046 7B61     		str	r3, [r7, #20]
1175:Generated_Source\PSoC5/ADC_DelSig.c ****                 coefB = ADC_DelSig_DIVISOR_32;
 1690              		.loc 1 1175 0
 1691 0048 2023     		movs	r3, #32
 1692 004a 3B61     		str	r3, [r7, #16]
1176:Generated_Source\PSoC5/ADC_DelSig.c ****                 break;
 1693              		.loc 1 1176 0
 1694 004c 04E0     		b	.L94
 1695              	.L96:
1177:Generated_Source\PSoC5/ADC_DelSig.c ****         #endif /* ADC_DelSig__BITS_16 */    
1178:Generated_Source\PSoC5/ADC_DelSig.c ****         #if( (ADC_DelSig_CFG1_RESOLUTION == ADC_DelSig__BITS_17) || \
1179:Generated_Source\PSoC5/ADC_DelSig.c ****              (ADC_DelSig_CFG2_RESOLUTION == ADC_DelSig__BITS_17) || \
1180:Generated_Source\PSoC5/ADC_DelSig.c ****              (ADC_DelSig_CFG3_RESOLUTION == ADC_DelSig__BITS_17) || \
1181:Generated_Source\PSoC5/ADC_DelSig.c ****              (ADC_DelSig_CFG4_RESOLUTION == ADC_DelSig__BITS_17) )
1182:Generated_Source\PSoC5/ADC_DelSig.c ****             case (uint8)ADC_DelSig__BITS_17:
1183:Generated_Source\PSoC5/ADC_DelSig.c ****                 coefA = ADC_DelSig_1UV_COUNTS / ADC_DelSig_DIVISOR_64;
1184:Generated_Source\PSoC5/ADC_DelSig.c ****                 coefB = ADC_DelSig_DIVISOR_64;
1185:Generated_Source\PSoC5/ADC_DelSig.c ****                 break;
1186:Generated_Source\PSoC5/ADC_DelSig.c ****         #endif /* ADC_DelSig__BITS_17 */    
1187:Generated_Source\PSoC5/ADC_DelSig.c ****         #if( (ADC_DelSig_CFG1_RESOLUTION == ADC_DelSig__BITS_18) || \
1188:Generated_Source\PSoC5/ADC_DelSig.c ****              (ADC_DelSig_CFG2_RESOLUTION == ADC_DelSig__BITS_18) || \
1189:Generated_Source\PSoC5/ADC_DelSig.c ****              (ADC_DelSig_CFG3_RESOLUTION == ADC_DelSig__BITS_18) || \
1190:Generated_Source\PSoC5/ADC_DelSig.c ****              (ADC_DelSig_CFG4_RESOLUTION == ADC_DelSig__BITS_18) )
1191:Generated_Source\PSoC5/ADC_DelSig.c ****             case (uint8)ADC_DelSig__BITS_18:
1192:Generated_Source\PSoC5/ADC_DelSig.c ****                 coefA = ADC_DelSig_1UV_COUNTS / ADC_DelSig_DIVISOR_125;
1193:Generated_Source\PSoC5/ADC_DelSig.c ****                 coefB = ADC_DelSig_DIVISOR_125;
1194:Generated_Source\PSoC5/ADC_DelSig.c ****                 break;
1195:Generated_Source\PSoC5/ADC_DelSig.c ****         #endif /* ADC_DelSig__BITS_18 */    
1196:Generated_Source\PSoC5/ADC_DelSig.c ****         #if( (ADC_DelSig_CFG1_RESOLUTION == ADC_DelSig__BITS_19) || \
1197:Generated_Source\PSoC5/ADC_DelSig.c ****              (ADC_DelSig_CFG2_RESOLUTION == ADC_DelSig__BITS_19) || \
1198:Generated_Source\PSoC5/ADC_DelSig.c ****              (ADC_DelSig_CFG3_RESOLUTION == ADC_DelSig__BITS_19) || \
1199:Generated_Source\PSoC5/ADC_DelSig.c ****              (ADC_DelSig_CFG4_RESOLUTION == ADC_DelSig__BITS_19) )
1200:Generated_Source\PSoC5/ADC_DelSig.c ****             case (uint8)ADC_DelSig__BITS_19:
1201:Generated_Source\PSoC5/ADC_DelSig.c ****                 coefA = ADC_DelSig_1UV_COUNTS / ADC_DelSig_DIVISOR_250;
1202:Generated_Source\PSoC5/ADC_DelSig.c ****                 coefB = ADC_DelSig_DIVISOR_250;
1203:Generated_Source\PSoC5/ADC_DelSig.c ****                 break;
1204:Generated_Source\PSoC5/ADC_DelSig.c ****         #endif /* ADC_DelSig__BITS_19 */    
1205:Generated_Source\PSoC5/ADC_DelSig.c ****         #if( (ADC_DelSig_CFG1_RESOLUTION == ADC_DelSig__BITS_20) || \
1206:Generated_Source\PSoC5/ADC_DelSig.c ****              (ADC_DelSig_CFG2_RESOLUTION == ADC_DelSig__BITS_20) || \
1207:Generated_Source\PSoC5/ADC_DelSig.c ****              (ADC_DelSig_CFG3_RESOLUTION == ADC_DelSig__BITS_20) || \
1208:Generated_Source\PSoC5/ADC_DelSig.c ****              (ADC_DelSig_CFG4_RESOLUTION == ADC_DelSig__BITS_20) )
1209:Generated_Source\PSoC5/ADC_DelSig.c ****             case (uint8)ADC_DelSig__BITS_20:
1210:Generated_Source\PSoC5/ADC_DelSig.c ****                 coefA = ADC_DelSig_1UV_COUNTS / ADC_DelSig_DIVISOR_500;
1211:Generated_Source\PSoC5/ADC_DelSig.c ****                 coefB = ADC_DelSig_DIVISOR_500;
1212:Generated_Source\PSoC5/ADC_DelSig.c ****                 break;
ARM GAS  C:\Users\rcaravac\AppData\Local\Temp\ccauAhrg.s 			page 52


1213:Generated_Source\PSoC5/ADC_DelSig.c ****         #endif /* ADC_DelSig__BITS_20 */    
1214:Generated_Source\PSoC5/ADC_DelSig.c ****         default:    /* resolution < 12 */
1215:Generated_Source\PSoC5/ADC_DelSig.c ****             /* 11 bits ADC + 2^20(1048576) = 31 bits */
1216:Generated_Source\PSoC5/ADC_DelSig.c ****             coefA = ADC_DelSig_1UV_COUNTS;
 1696              		.loc 1 1216 0
 1697 004e 124B     		ldr	r3, .L97+4
 1698 0050 7B61     		str	r3, [r7, #20]
1217:Generated_Source\PSoC5/ADC_DelSig.c ****             coefB = ADC_DelSig_DIVISOR_1;
 1699              		.loc 1 1217 0
 1700 0052 0123     		movs	r3, #1
 1701 0054 3B61     		str	r3, [r7, #16]
1218:Generated_Source\PSoC5/ADC_DelSig.c ****             break;
 1702              		.loc 1 1218 0
 1703 0056 00BF     		nop
 1704              	.L94:
1219:Generated_Source\PSoC5/ADC_DelSig.c ****     }
1220:Generated_Source\PSoC5/ADC_DelSig.c ****     coefB = ADC_DelSig_CountsPerVolt / coefB;
 1705              		.loc 1 1220 0
 1706 0058 104B     		ldr	r3, .L97+8
 1707 005a 1A68     		ldr	r2, [r3]
 1708 005c 3B69     		ldr	r3, [r7, #16]
 1709 005e 92FBF3F3 		sdiv	r3, r2, r3
 1710 0062 3B61     		str	r3, [r7, #16]
1221:Generated_Source\PSoC5/ADC_DelSig.c ****     uVolts = ((coefA * adcCounts) / coefB) - ((coefA * ADC_DelSig_Offset) / coefB);
 1711              		.loc 1 1221 0
 1712 0064 7B69     		ldr	r3, [r7, #20]
 1713 0066 7A68     		ldr	r2, [r7, #4]
 1714 0068 02FB03F2 		mul	r2, r2, r3
 1715 006c 3B69     		ldr	r3, [r7, #16]
 1716 006e 92FBF3F2 		sdiv	r2, r2, r3
 1717 0072 0B4B     		ldr	r3, .L97+12
 1718 0074 1B68     		ldr	r3, [r3]
 1719 0076 7969     		ldr	r1, [r7, #20]
 1720 0078 01FB03F1 		mul	r1, r1, r3
 1721 007c 3B69     		ldr	r3, [r7, #16]
 1722 007e 91FBF3F3 		sdiv	r3, r1, r3
 1723 0082 D31A     		subs	r3, r2, r3
 1724 0084 BB60     		str	r3, [r7, #8]
1222:Generated_Source\PSoC5/ADC_DelSig.c **** 
1223:Generated_Source\PSoC5/ADC_DelSig.c ****     return( uVolts );
 1725              		.loc 1 1223 0
 1726 0086 BB68     		ldr	r3, [r7, #8]
1224:Generated_Source\PSoC5/ADC_DelSig.c **** }
 1727              		.loc 1 1224 0
 1728 0088 1846     		mov	r0, r3
 1729 008a 1C37     		adds	r7, r7, #28
 1730              		.cfi_def_cfa_offset 4
 1731 008c BD46     		mov	sp, r7
 1732              		.cfi_def_cfa_register 13
 1733              		@ sp needed
 1734 008e 80BC     		pop	{r7}
 1735              		.cfi_restore 7
 1736              		.cfi_def_cfa_offset 0
 1737 0090 7047     		bx	lr
 1738              	.L98:
 1739 0092 00BF     		.align	2
 1740              	.L97:
ARM GAS  C:\Users\rcaravac\AppData\Local\Temp\ccauAhrg.s 			page 53


 1741 0094 00000000 		.word	ADC_DelSig_Config
 1742 0098 40420F00 		.word	1000000
 1743 009c 00000000 		.word	ADC_DelSig_CountsPerVolt
 1744 00a0 00000000 		.word	ADC_DelSig_Offset
 1745              		.cfi_endproc
 1746              	.LFE18:
 1747              		.size	ADC_DelSig_CountsTo_uVolts, .-ADC_DelSig_CountsTo_uVolts
 1748              		.section	.text.ADC_DelSig_InitConfig,"ax",%progbits
 1749              		.align	2
 1750              		.thumb
 1751              		.thumb_func
 1752              		.type	ADC_DelSig_InitConfig, %function
 1753              	ADC_DelSig_InitConfig:
 1754              	.LFB19:
1225:Generated_Source\PSoC5/ADC_DelSig.c **** 
1226:Generated_Source\PSoC5/ADC_DelSig.c **** 
1227:Generated_Source\PSoC5/ADC_DelSig.c **** /*******************************************************************************
1228:Generated_Source\PSoC5/ADC_DelSig.c **** * Function Name: ADC_DelSig_InitConfig(uint8 config)
1229:Generated_Source\PSoC5/ADC_DelSig.c **** ********************************************************************************
1230:Generated_Source\PSoC5/ADC_DelSig.c **** *
1231:Generated_Source\PSoC5/ADC_DelSig.c **** * Summary:
1232:Generated_Source\PSoC5/ADC_DelSig.c **** *  Initializes all registers based on customizer settings
1233:Generated_Source\PSoC5/ADC_DelSig.c **** *
1234:Generated_Source\PSoC5/ADC_DelSig.c **** * Parameters:
1235:Generated_Source\PSoC5/ADC_DelSig.c **** *   void
1236:Generated_Source\PSoC5/ADC_DelSig.c **** *
1237:Generated_Source\PSoC5/ADC_DelSig.c **** * Return:
1238:Generated_Source\PSoC5/ADC_DelSig.c **** *  None
1239:Generated_Source\PSoC5/ADC_DelSig.c **** *
1240:Generated_Source\PSoC5/ADC_DelSig.c **** * Global variables:
1241:Generated_Source\PSoC5/ADC_DelSig.c **** *  ADC_DelSig_CountsPerVolt:  Used to set the default counts per volt.
1242:Generated_Source\PSoC5/ADC_DelSig.c **** *
1243:Generated_Source\PSoC5/ADC_DelSig.c **** * Side Effects: Rewrites the coherency set by ADC_DelSig_SetCoherency()
1244:Generated_Source\PSoC5/ADC_DelSig.c **** *   API to the default value.
1245:Generated_Source\PSoC5/ADC_DelSig.c **** *
1246:Generated_Source\PSoC5/ADC_DelSig.c **** *******************************************************************************/
1247:Generated_Source\PSoC5/ADC_DelSig.c **** static void ADC_DelSig_InitConfig(uint8 config) 
1248:Generated_Source\PSoC5/ADC_DelSig.c **** {
 1755              		.loc 1 1248 0
 1756              		.cfi_startproc
 1757              		@ args = 0, pretend = 0, frame = 8
 1758              		@ frame_needed = 1, uses_anonymous_args = 0
 1759 0000 80B5     		push	{r7, lr}
 1760              		.cfi_def_cfa_offset 8
 1761              		.cfi_offset 7, -8
 1762              		.cfi_offset 14, -4
 1763 0002 82B0     		sub	sp, sp, #8
 1764              		.cfi_def_cfa_offset 16
 1765 0004 00AF     		add	r7, sp, #0
 1766              		.cfi_def_cfa_register 7
 1767 0006 0346     		mov	r3, r0
 1768 0008 FB71     		strb	r3, [r7, #7]
1249:Generated_Source\PSoC5/ADC_DelSig.c ****     ADC_DelSig_stopConversion = 0u;
 1769              		.loc 1 1249 0
 1770 000a 384B     		ldr	r3, .L102
 1771 000c 0022     		movs	r2, #0
 1772 000e 1A70     		strb	r2, [r3]
ARM GAS  C:\Users\rcaravac\AppData\Local\Temp\ccauAhrg.s 			page 54


1250:Generated_Source\PSoC5/ADC_DelSig.c **** 
1251:Generated_Source\PSoC5/ADC_DelSig.c ****     if (config == 1u)
 1773              		.loc 1 1251 0
 1774 0010 FB79     		ldrb	r3, [r7, #7]	@ zero_extendqisi2
 1775 0012 012B     		cmp	r3, #1
 1776 0014 65D1     		bne	.L101
1252:Generated_Source\PSoC5/ADC_DelSig.c ****     {
1253:Generated_Source\PSoC5/ADC_DelSig.c ****         /* Default Config */
1254:Generated_Source\PSoC5/ADC_DelSig.c ****         ADC_DelSig_DEC_CR_REG      = ADC_DelSig_CFG1_DEC_CR;
 1777              		.loc 1 1254 0
 1778 0016 364B     		ldr	r3, .L102+4
 1779 0018 3822     		movs	r2, #56
 1780 001a 1A70     		strb	r2, [r3]
1255:Generated_Source\PSoC5/ADC_DelSig.c ****         ADC_DelSig_DEC_SHIFT1_REG  = ADC_DelSig_CFG1_DEC_SHIFT1;
 1781              		.loc 1 1255 0
 1782 001c 354B     		ldr	r3, .L102+8
 1783 001e 0422     		movs	r2, #4
 1784 0020 1A70     		strb	r2, [r3]
1256:Generated_Source\PSoC5/ADC_DelSig.c ****         ADC_DelSig_DEC_SHIFT2_REG  = ADC_DelSig_CFG1_DEC_SHIFT2;
 1785              		.loc 1 1256 0
 1786 0022 354B     		ldr	r3, .L102+12
 1787 0024 0722     		movs	r2, #7
 1788 0026 1A70     		strb	r2, [r3]
1257:Generated_Source\PSoC5/ADC_DelSig.c ****         ADC_DelSig_DEC_DR2_REG     = ADC_DelSig_CFG1_DEC_DR2;
 1789              		.loc 1 1257 0
 1790 0028 344B     		ldr	r3, .L102+16
 1791 002a 0022     		movs	r2, #0
 1792 002c 1A70     		strb	r2, [r3]
1258:Generated_Source\PSoC5/ADC_DelSig.c ****         ADC_DelSig_DEC_DR2H_REG    = ADC_DelSig_CFG1_DEC_DR2H;
 1793              		.loc 1 1258 0
 1794 002e 344B     		ldr	r3, .L102+20
 1795 0030 0022     		movs	r2, #0
 1796 0032 1A70     		strb	r2, [r3]
1259:Generated_Source\PSoC5/ADC_DelSig.c ****         ADC_DelSig_DEC_DR1_REG     = ADC_DelSig_CFG1_DEC_DR1;
 1797              		.loc 1 1259 0
 1798 0034 334B     		ldr	r3, .L102+24
 1799 0036 0F22     		movs	r2, #15
 1800 0038 1A70     		strb	r2, [r3]
1260:Generated_Source\PSoC5/ADC_DelSig.c ****         ADC_DelSig_DEC_OCOR_REG    = ADC_DelSig_CFG1_DEC_OCOR;
 1801              		.loc 1 1260 0
 1802 003a 334B     		ldr	r3, .L102+28
 1803 003c 7322     		movs	r2, #115
 1804 003e 1A70     		strb	r2, [r3]
1261:Generated_Source\PSoC5/ADC_DelSig.c ****         ADC_DelSig_DEC_OCORM_REG   = ADC_DelSig_CFG1_DEC_OCORM;
 1805              		.loc 1 1261 0
 1806 0040 324B     		ldr	r3, .L102+32
 1807 0042 0022     		movs	r2, #0
 1808 0044 1A70     		strb	r2, [r3]
1262:Generated_Source\PSoC5/ADC_DelSig.c ****         ADC_DelSig_DEC_OCORH_REG   = ADC_DelSig_CFG1_DEC_OCORH;
 1809              		.loc 1 1262 0
 1810 0046 324B     		ldr	r3, .L102+36
 1811 0048 0022     		movs	r2, #0
 1812 004a 1A70     		strb	r2, [r3]
1263:Generated_Source\PSoC5/ADC_DelSig.c ****         ADC_DelSig_DEC_COHER_REG   = ADC_DelSig_CFG1_DEC_COHER;
 1813              		.loc 1 1263 0
 1814 004c 314B     		ldr	r3, .L102+40
 1815 004e 0122     		movs	r2, #1
ARM GAS  C:\Users\rcaravac\AppData\Local\Temp\ccauAhrg.s 			page 55


 1816 0050 1A70     		strb	r2, [r3]
1264:Generated_Source\PSoC5/ADC_DelSig.c **** 
1265:Generated_Source\PSoC5/ADC_DelSig.c ****         ADC_DelSig_DSM_CR4_REG     = ADC_DelSig_CFG1_DSM_CR4;
 1817              		.loc 1 1265 0
 1818 0052 314B     		ldr	r3, .L102+44
 1819 0054 1422     		movs	r2, #20
 1820 0056 1A70     		strb	r2, [r3]
1266:Generated_Source\PSoC5/ADC_DelSig.c ****         ADC_DelSig_DSM_CR5_REG     = ADC_DelSig_CFG1_DSM_CR5;
 1821              		.loc 1 1266 0
 1822 0058 304B     		ldr	r3, .L102+48
 1823 005a 0922     		movs	r2, #9
 1824 005c 1A70     		strb	r2, [r3]
1267:Generated_Source\PSoC5/ADC_DelSig.c ****         ADC_DelSig_DSM_CR6_REG     = ADC_DelSig_CFG1_DSM_CR6;
 1825              		.loc 1 1267 0
 1826 005e 304B     		ldr	r3, .L102+52
 1827 0060 0A22     		movs	r2, #10
 1828 0062 1A70     		strb	r2, [r3]
1268:Generated_Source\PSoC5/ADC_DelSig.c ****         ADC_DelSig_DSM_CR7_REG     = ADC_DelSig_CFG1_DSM_CR7;
 1829              		.loc 1 1268 0
 1830 0064 2F4B     		ldr	r3, .L102+56
 1831 0066 0022     		movs	r2, #0
 1832 0068 1A70     		strb	r2, [r3]
1269:Generated_Source\PSoC5/ADC_DelSig.c ****         ADC_DelSig_DSM_CR10_REG    = ADC_DelSig_CFG1_DSM_CR10;
 1833              		.loc 1 1269 0
 1834 006a 2F4B     		ldr	r3, .L102+60
 1835 006c 1122     		movs	r2, #17
 1836 006e 1A70     		strb	r2, [r3]
1270:Generated_Source\PSoC5/ADC_DelSig.c ****         ADC_DelSig_DSM_CR11_REG    = ADC_DelSig_CFG1_DSM_CR11;
 1837              		.loc 1 1270 0
 1838 0070 2E4B     		ldr	r3, .L102+64
 1839 0072 1222     		movs	r2, #18
 1840 0074 1A70     		strb	r2, [r3]
1271:Generated_Source\PSoC5/ADC_DelSig.c ****         ADC_DelSig_DSM_CR12_REG    = ADC_DelSig_CFG1_DSM_CR12;
 1841              		.loc 1 1271 0
 1842 0076 2E4B     		ldr	r3, .L102+68
 1843 0078 0122     		movs	r2, #1
 1844 007a 1A70     		strb	r2, [r3]
1272:Generated_Source\PSoC5/ADC_DelSig.c ****         ADC_DelSig_DSM_CR14_REG    = ADC_DelSig_CFG1_DSM_CR14;
 1845              		.loc 1 1272 0
 1846 007c 2D4B     		ldr	r3, .L102+72
 1847 007e 0022     		movs	r2, #0
 1848 0080 1A70     		strb	r2, [r3]
1273:Generated_Source\PSoC5/ADC_DelSig.c ****         ADC_DelSig_DSM_CR15_REG    = ADC_DelSig_CFG1_DSM_CR15;
 1849              		.loc 1 1273 0
 1850 0082 2D4B     		ldr	r3, .L102+76
 1851 0084 0022     		movs	r2, #0
 1852 0086 1A70     		strb	r2, [r3]
1274:Generated_Source\PSoC5/ADC_DelSig.c ****         ADC_DelSig_DSM_CR16_REG    = ADC_DelSig_CFG1_DSM_CR16;
 1853              		.loc 1 1274 0
 1854 0088 2C4B     		ldr	r3, .L102+80
 1855 008a 0A22     		movs	r2, #10
 1856 008c 1A70     		strb	r2, [r3]
1275:Generated_Source\PSoC5/ADC_DelSig.c ****         ADC_DelSig_DSM_CR17_REG    = ADC_DelSig_CFG1_DSM_CR17;
 1857              		.loc 1 1275 0
 1858 008e 2C4B     		ldr	r3, .L102+84
 1859 0090 4322     		movs	r2, #67
 1860 0092 1A70     		strb	r2, [r3]
ARM GAS  C:\Users\rcaravac\AppData\Local\Temp\ccauAhrg.s 			page 56


1276:Generated_Source\PSoC5/ADC_DelSig.c ****         /* Set DSM_REF0_REG by disabling and enabling the PRESS circuit */
1277:Generated_Source\PSoC5/ADC_DelSig.c ****         ADC_DelSig_SetDSMRef0Reg(ADC_DelSig_CFG1_DSM_REF0);
 1861              		.loc 1 1277 0
 1862 0094 4C20     		movs	r0, #76
 1863 0096 FFF7FEFF 		bl	ADC_DelSig_SetDSMRef0Reg
1278:Generated_Source\PSoC5/ADC_DelSig.c ****         ADC_DelSig_DSM_REF2_REG    = ADC_DelSig_CFG1_DSM_REF2;
 1864              		.loc 1 1278 0
 1865 009a 2A4B     		ldr	r3, .L102+88
 1866 009c 5822     		movs	r2, #88
 1867 009e 1A70     		strb	r2, [r3]
1279:Generated_Source\PSoC5/ADC_DelSig.c ****         ADC_DelSig_DSM_REF3_REG    = ADC_DelSig_CFG1_DSM_REF3;
 1868              		.loc 1 1279 0
 1869 00a0 294B     		ldr	r3, .L102+92
 1870 00a2 0022     		movs	r2, #0
 1871 00a4 1A70     		strb	r2, [r3]
1280:Generated_Source\PSoC5/ADC_DelSig.c **** 
1281:Generated_Source\PSoC5/ADC_DelSig.c ****         ADC_DelSig_DSM_BUF0_REG    = ADC_DelSig_CFG1_DSM_BUF0;
 1872              		.loc 1 1281 0
 1873 00a6 294B     		ldr	r3, .L102+96
 1874 00a8 0522     		movs	r2, #5
 1875 00aa 1A70     		strb	r2, [r3]
1282:Generated_Source\PSoC5/ADC_DelSig.c ****         ADC_DelSig_DSM_BUF1_REG    = ADC_DelSig_CFG1_DSM_BUF1;
 1876              		.loc 1 1282 0
 1877 00ac 284B     		ldr	r3, .L102+100
 1878 00ae 0122     		movs	r2, #1
 1879 00b0 1A70     		strb	r2, [r3]
1283:Generated_Source\PSoC5/ADC_DelSig.c ****         ADC_DelSig_DSM_BUF2_REG    = ADC_DelSig_CFG1_DSM_BUF2;
 1880              		.loc 1 1283 0
 1881 00b2 284B     		ldr	r3, .L102+104
 1882 00b4 0022     		movs	r2, #0
 1883 00b6 1A70     		strb	r2, [r3]
1284:Generated_Source\PSoC5/ADC_DelSig.c ****         ADC_DelSig_DSM_BUF3_REG    = ADC_DelSig_CFG1_DSM_BUF3;
 1884              		.loc 1 1284 0
 1885 00b8 274B     		ldr	r3, .L102+108
 1886 00ba 0A22     		movs	r2, #10
 1887 00bc 1A70     		strb	r2, [r3]
1285:Generated_Source\PSoC5/ADC_DelSig.c **** 
1286:Generated_Source\PSoC5/ADC_DelSig.c ****         /* To select either Vssa or Vref to -ve input of DSM depending on
1287:Generated_Source\PSoC5/ADC_DelSig.c ****         *  the input  range selected.
1288:Generated_Source\PSoC5/ADC_DelSig.c ****         */
1289:Generated_Source\PSoC5/ADC_DelSig.c ****         #if(ADC_DelSig_DEFAULT_INPUT_MODE)
1290:Generated_Source\PSoC5/ADC_DelSig.c ****             #if (ADC_DelSig_CFG1_INPUT_RANGE == ADC_DelSig_IR_VSSA_TO_2VREF)
1291:Generated_Source\PSoC5/ADC_DelSig.c ****                 ADC_DelSig_AMux_Select(1u);
 1888              		.loc 1 1291 0
 1889 00be 0120     		movs	r0, #1
 1890 00c0 FFF7FEFF 		bl	ADC_DelSig_AMux_Select
1292:Generated_Source\PSoC5/ADC_DelSig.c ****             #else
1293:Generated_Source\PSoC5/ADC_DelSig.c ****                 ADC_DelSig_AMux_Select(0u);
1294:Generated_Source\PSoC5/ADC_DelSig.c ****             #endif /* ADC_DelSig_IR_VSSA_TO_2VREF) */
1295:Generated_Source\PSoC5/ADC_DelSig.c ****         #endif /* ADC_DelSig_DEFAULT_INPUT_MODE */
1296:Generated_Source\PSoC5/ADC_DelSig.c **** 
1297:Generated_Source\PSoC5/ADC_DelSig.c ****         /* Set the Conversion stop if resolution is above 16 bit and conversion
1298:Generated_Source\PSoC5/ADC_DelSig.c ****         *   mode is Single sample
1299:Generated_Source\PSoC5/ADC_DelSig.c ****         */
1300:Generated_Source\PSoC5/ADC_DelSig.c ****         #if(ADC_DelSig_CFG1_RESOLUTION > 16 && \
1301:Generated_Source\PSoC5/ADC_DelSig.c ****             ADC_DelSig_CFG1_CONV_MODE == ADC_DelSig_MODE_SINGLE_SAMPLE)
1302:Generated_Source\PSoC5/ADC_DelSig.c ****             ADC_DelSig_stopConversion = 1u;
ARM GAS  C:\Users\rcaravac\AppData\Local\Temp\ccauAhrg.s 			page 57


1303:Generated_Source\PSoC5/ADC_DelSig.c ****         #endif /* Single sample with resolution above 16 bits. */
1304:Generated_Source\PSoC5/ADC_DelSig.c **** 
1305:Generated_Source\PSoC5/ADC_DelSig.c ****         ADC_DelSig_CountsPerVolt = (int32)ADC_DelSig_CFG1_COUNTS_PER_VOLT;
 1891              		.loc 1 1305 0
 1892 00c4 254B     		ldr	r3, .L102+112
 1893 00c6 7D22     		movs	r2, #125
 1894 00c8 1A60     		str	r2, [r3]
1306:Generated_Source\PSoC5/ADC_DelSig.c **** 
1307:Generated_Source\PSoC5/ADC_DelSig.c ****         ADC_DelSig_Ext_CP_Clk_SetDividerRegister(ADC_DelSig_CFG1_CP_CLK_DIVIDER, 1u);
 1895              		.loc 1 1307 0
 1896 00ca 0121     		movs	r1, #1
 1897 00cc 0520     		movs	r0, #5
 1898 00ce FFF7FEFF 		bl	ADC_DelSig_Ext_CP_Clk_SetDividerRegister
1308:Generated_Source\PSoC5/ADC_DelSig.c **** 
1309:Generated_Source\PSoC5/ADC_DelSig.c ****         /* This is only valid if there is an internal clock */
1310:Generated_Source\PSoC5/ADC_DelSig.c ****         #if(ADC_DelSig_DEFAULT_INTERNAL_CLK)
1311:Generated_Source\PSoC5/ADC_DelSig.c ****             ADC_DelSig_theACLK_SetDividerRegister(ADC_DelSig_CFG1_ADC_CLK_DIVIDER, 1u);
 1899              		.loc 1 1311 0
 1900 00d2 0121     		movs	r1, #1
 1901 00d4 9520     		movs	r0, #149
 1902 00d6 FFF7FEFF 		bl	ADC_DelSig_theACLK_SetDividerRegister
1312:Generated_Source\PSoC5/ADC_DelSig.c ****         #endif /* ADC_DelSig_DEFAULT_INTERNAL_CLK */
1313:Generated_Source\PSoC5/ADC_DelSig.c **** 
1314:Generated_Source\PSoC5/ADC_DelSig.c ****         #if(ADC_DelSig_IRQ_REMOVE == 0u)
1315:Generated_Source\PSoC5/ADC_DelSig.c ****             /* Set interrupt vector */
1316:Generated_Source\PSoC5/ADC_DelSig.c ****             (void)CyIntSetVector(ADC_DelSig_INTC_NUMBER, &ADC_DelSig_ISR1);
 1903              		.loc 1 1316 0
 1904 00da 2149     		ldr	r1, .L102+116
 1905 00dc 1D20     		movs	r0, #29
 1906 00de FFF7FEFF 		bl	CyIntSetVector
 1907              	.L101:
1317:Generated_Source\PSoC5/ADC_DelSig.c ****         #endif   /* End ADC_DelSig_IRQ_REMOVE */
1318:Generated_Source\PSoC5/ADC_DelSig.c ****     }
1319:Generated_Source\PSoC5/ADC_DelSig.c **** 
1320:Generated_Source\PSoC5/ADC_DelSig.c ****     #if(ADC_DelSig_DEFAULT_NUM_CONFIGS > 1)
1321:Generated_Source\PSoC5/ADC_DelSig.c ****         if(config == 2u)
1322:Generated_Source\PSoC5/ADC_DelSig.c ****         {
1323:Generated_Source\PSoC5/ADC_DelSig.c ****             /* Second Config */
1324:Generated_Source\PSoC5/ADC_DelSig.c ****             ADC_DelSig_DEC_CR_REG      = ADC_DelSig_CFG2_DEC_CR;
1325:Generated_Source\PSoC5/ADC_DelSig.c ****             ADC_DelSig_DEC_SHIFT1_REG  = ADC_DelSig_CFG2_DEC_SHIFT1;
1326:Generated_Source\PSoC5/ADC_DelSig.c ****             ADC_DelSig_DEC_SHIFT2_REG  = ADC_DelSig_CFG2_DEC_SHIFT2;
1327:Generated_Source\PSoC5/ADC_DelSig.c ****             ADC_DelSig_DEC_DR2_REG     = ADC_DelSig_CFG2_DEC_DR2;
1328:Generated_Source\PSoC5/ADC_DelSig.c ****             ADC_DelSig_DEC_DR2H_REG    = ADC_DelSig_CFG2_DEC_DR2H;
1329:Generated_Source\PSoC5/ADC_DelSig.c ****             ADC_DelSig_DEC_DR1_REG     = ADC_DelSig_CFG2_DEC_DR1;
1330:Generated_Source\PSoC5/ADC_DelSig.c ****             ADC_DelSig_DEC_OCOR_REG    = ADC_DelSig_CFG2_DEC_OCOR;
1331:Generated_Source\PSoC5/ADC_DelSig.c ****             ADC_DelSig_DEC_OCORM_REG   = ADC_DelSig_CFG2_DEC_OCORM;
1332:Generated_Source\PSoC5/ADC_DelSig.c ****             ADC_DelSig_DEC_OCORH_REG   = ADC_DelSig_CFG2_DEC_OCORH;
1333:Generated_Source\PSoC5/ADC_DelSig.c ****             ADC_DelSig_DEC_COHER_REG   = ADC_DelSig_CFG2_DEC_COHER;
1334:Generated_Source\PSoC5/ADC_DelSig.c **** 
1335:Generated_Source\PSoC5/ADC_DelSig.c ****             ADC_DelSig_DSM_CR4_REG     = ADC_DelSig_CFG2_DSM_CR4;
1336:Generated_Source\PSoC5/ADC_DelSig.c ****             ADC_DelSig_DSM_CR5_REG     = ADC_DelSig_CFG2_DSM_CR5;
1337:Generated_Source\PSoC5/ADC_DelSig.c ****             ADC_DelSig_DSM_CR6_REG     = ADC_DelSig_CFG2_DSM_CR6;
1338:Generated_Source\PSoC5/ADC_DelSig.c ****             ADC_DelSig_DSM_CR7_REG     = ADC_DelSig_CFG2_DSM_CR7;
1339:Generated_Source\PSoC5/ADC_DelSig.c ****             ADC_DelSig_DSM_CR10_REG    = ADC_DelSig_CFG2_DSM_CR10;
1340:Generated_Source\PSoC5/ADC_DelSig.c ****             ADC_DelSig_DSM_CR11_REG    = ADC_DelSig_CFG2_DSM_CR11;
1341:Generated_Source\PSoC5/ADC_DelSig.c ****             ADC_DelSig_DSM_CR12_REG    = ADC_DelSig_CFG2_DSM_CR12;
1342:Generated_Source\PSoC5/ADC_DelSig.c ****             ADC_DelSig_DSM_CR14_REG    = ADC_DelSig_CFG2_DSM_CR14;
ARM GAS  C:\Users\rcaravac\AppData\Local\Temp\ccauAhrg.s 			page 58


1343:Generated_Source\PSoC5/ADC_DelSig.c ****             ADC_DelSig_DSM_CR15_REG    = ADC_DelSig_CFG2_DSM_CR15;
1344:Generated_Source\PSoC5/ADC_DelSig.c ****             ADC_DelSig_DSM_CR16_REG    = ADC_DelSig_CFG2_DSM_CR16;
1345:Generated_Source\PSoC5/ADC_DelSig.c ****             ADC_DelSig_DSM_CR17_REG    = ADC_DelSig_CFG2_DSM_CR17;
1346:Generated_Source\PSoC5/ADC_DelSig.c ****             /* Set DSM_REF0_REG by disabling and enabling the PRESS cirucit */
1347:Generated_Source\PSoC5/ADC_DelSig.c ****             ADC_DelSig_SetDSMRef0Reg(ADC_DelSig_CFG2_DSM_REF0);
1348:Generated_Source\PSoC5/ADC_DelSig.c ****             ADC_DelSig_DSM_REF2_REG    = ADC_DelSig_CFG2_DSM_REF2;
1349:Generated_Source\PSoC5/ADC_DelSig.c ****             ADC_DelSig_DSM_REF3_REG    = ADC_DelSig_CFG2_DSM_REF3;
1350:Generated_Source\PSoC5/ADC_DelSig.c **** 
1351:Generated_Source\PSoC5/ADC_DelSig.c ****             ADC_DelSig_DSM_BUF0_REG    = ADC_DelSig_CFG2_DSM_BUF0;
1352:Generated_Source\PSoC5/ADC_DelSig.c ****             ADC_DelSig_DSM_BUF1_REG    = ADC_DelSig_CFG2_DSM_BUF1;
1353:Generated_Source\PSoC5/ADC_DelSig.c ****             ADC_DelSig_DSM_BUF2_REG    = ADC_DelSig_CFG2_DSM_BUF2;
1354:Generated_Source\PSoC5/ADC_DelSig.c ****             ADC_DelSig_DSM_BUF3_REG    = ADC_DelSig_CFG2_DSM_BUF3;
1355:Generated_Source\PSoC5/ADC_DelSig.c **** 
1356:Generated_Source\PSoC5/ADC_DelSig.c ****             /* To select either Vssa or Vref to -ve input of DSM depending on
1357:Generated_Source\PSoC5/ADC_DelSig.c ****             *  the input range selected.
1358:Generated_Source\PSoC5/ADC_DelSig.c ****             */
1359:Generated_Source\PSoC5/ADC_DelSig.c **** 
1360:Generated_Source\PSoC5/ADC_DelSig.c ****             #if(ADC_DelSig_DEFAULT_INPUT_MODE)
1361:Generated_Source\PSoC5/ADC_DelSig.c ****                 #if (ADC_DelSig_CFG2_INPUT_RANGE == ADC_DelSig_IR_VSSA_TO_2VREF)
1362:Generated_Source\PSoC5/ADC_DelSig.c ****                     ADC_DelSig_AMux_Select(1u);
1363:Generated_Source\PSoC5/ADC_DelSig.c ****                 #else
1364:Generated_Source\PSoC5/ADC_DelSig.c ****                     ADC_DelSig_AMux_Select(0u);
1365:Generated_Source\PSoC5/ADC_DelSig.c ****                 #endif /* ADC_DelSig_IR_VSSA_TO_2VREF) */
1366:Generated_Source\PSoC5/ADC_DelSig.c ****             #endif /* ADC_DelSig_DEFAULT_INPUT_MODE */
1367:Generated_Source\PSoC5/ADC_DelSig.c **** 
1368:Generated_Source\PSoC5/ADC_DelSig.c ****             /* Set the Conversion stop if resolution is above 16 bit and
1369:Generated_Source\PSoC5/ADC_DelSig.c ****             *   conversion mode is Single sample
1370:Generated_Source\PSoC5/ADC_DelSig.c ****             */
1371:Generated_Source\PSoC5/ADC_DelSig.c ****             #if(ADC_DelSig_CFG2_RESOLUTION > 16 && \
1372:Generated_Source\PSoC5/ADC_DelSig.c ****                 ADC_DelSig_CFG2_CONV_MODE == ADC_DelSig_MODE_SINGLE_SAMPLE)
1373:Generated_Source\PSoC5/ADC_DelSig.c ****                 ADC_DelSig_stopConversion = 1u;
1374:Generated_Source\PSoC5/ADC_DelSig.c ****             #endif /* Single sample with resolution above 16 bits. */
1375:Generated_Source\PSoC5/ADC_DelSig.c **** 
1376:Generated_Source\PSoC5/ADC_DelSig.c ****             ADC_DelSig_CountsPerVolt = (int32)ADC_DelSig_CFG2_COUNTS_PER_VOLT;
1377:Generated_Source\PSoC5/ADC_DelSig.c **** 
1378:Generated_Source\PSoC5/ADC_DelSig.c ****             ADC_DelSig_Ext_CP_Clk_SetDividerRegister(ADC_DelSig_CFG2_CP_CLK_DIVIDER, 1u);
1379:Generated_Source\PSoC5/ADC_DelSig.c **** 
1380:Generated_Source\PSoC5/ADC_DelSig.c ****             /* This is only valid if there is an internal clock */
1381:Generated_Source\PSoC5/ADC_DelSig.c ****             #if(ADC_DelSig_DEFAULT_INTERNAL_CLK)
1382:Generated_Source\PSoC5/ADC_DelSig.c ****                 ADC_DelSig_theACLK_SetDividerRegister(ADC_DelSig_CFG2_ADC_CLK_DIVIDER, 1u);
1383:Generated_Source\PSoC5/ADC_DelSig.c ****             #endif /* ADC_DelSig_DEFAULT_INTERNAL_CLK */
1384:Generated_Source\PSoC5/ADC_DelSig.c **** 
1385:Generated_Source\PSoC5/ADC_DelSig.c ****             #if(ADC_DelSig_IRQ_REMOVE == 0u)
1386:Generated_Source\PSoC5/ADC_DelSig.c ****                 /* Set interrupt vector */
1387:Generated_Source\PSoC5/ADC_DelSig.c ****                 (void)CyIntSetVector(ADC_DelSig_INTC_NUMBER, &ADC_DelSig_ISR2);
1388:Generated_Source\PSoC5/ADC_DelSig.c ****             #endif   /* End ADC_DelSig_IRQ_REMOVE */
1389:Generated_Source\PSoC5/ADC_DelSig.c ****         }
1390:Generated_Source\PSoC5/ADC_DelSig.c ****     #endif /* ADC_DelSig_DEFAULT_NUM_CONFIGS > 1 */
1391:Generated_Source\PSoC5/ADC_DelSig.c **** 
1392:Generated_Source\PSoC5/ADC_DelSig.c ****     #if(ADC_DelSig_DEFAULT_NUM_CONFIGS > 2)
1393:Generated_Source\PSoC5/ADC_DelSig.c ****         if(config == 3u)
1394:Generated_Source\PSoC5/ADC_DelSig.c ****         {
1395:Generated_Source\PSoC5/ADC_DelSig.c ****             /* Third Config */
1396:Generated_Source\PSoC5/ADC_DelSig.c ****             ADC_DelSig_DEC_CR_REG      = ADC_DelSig_CFG3_DEC_CR;
1397:Generated_Source\PSoC5/ADC_DelSig.c ****             ADC_DelSig_DEC_SHIFT1_REG  = ADC_DelSig_CFG3_DEC_SHIFT1;
1398:Generated_Source\PSoC5/ADC_DelSig.c ****             ADC_DelSig_DEC_SHIFT2_REG  = ADC_DelSig_CFG3_DEC_SHIFT2;
1399:Generated_Source\PSoC5/ADC_DelSig.c ****             ADC_DelSig_DEC_DR2_REG     = ADC_DelSig_CFG3_DEC_DR2;
ARM GAS  C:\Users\rcaravac\AppData\Local\Temp\ccauAhrg.s 			page 59


1400:Generated_Source\PSoC5/ADC_DelSig.c ****             ADC_DelSig_DEC_DR2H_REG    = ADC_DelSig_CFG3_DEC_DR2H;
1401:Generated_Source\PSoC5/ADC_DelSig.c ****             ADC_DelSig_DEC_DR1_REG     = ADC_DelSig_CFG3_DEC_DR1;
1402:Generated_Source\PSoC5/ADC_DelSig.c ****             ADC_DelSig_DEC_OCOR_REG    = ADC_DelSig_CFG3_DEC_OCOR;
1403:Generated_Source\PSoC5/ADC_DelSig.c ****             ADC_DelSig_DEC_OCORM_REG   = ADC_DelSig_CFG3_DEC_OCORM;
1404:Generated_Source\PSoC5/ADC_DelSig.c ****             ADC_DelSig_DEC_OCORH_REG   = ADC_DelSig_CFG3_DEC_OCORH;
1405:Generated_Source\PSoC5/ADC_DelSig.c ****             ADC_DelSig_DEC_COHER_REG   = ADC_DelSig_CFG3_DEC_COHER;
1406:Generated_Source\PSoC5/ADC_DelSig.c **** 
1407:Generated_Source\PSoC5/ADC_DelSig.c ****             ADC_DelSig_DSM_CR4_REG     = ADC_DelSig_CFG3_DSM_CR4;
1408:Generated_Source\PSoC5/ADC_DelSig.c ****             ADC_DelSig_DSM_CR5_REG     = ADC_DelSig_CFG3_DSM_CR5;
1409:Generated_Source\PSoC5/ADC_DelSig.c ****             ADC_DelSig_DSM_CR6_REG     = ADC_DelSig_CFG3_DSM_CR6;
1410:Generated_Source\PSoC5/ADC_DelSig.c ****             ADC_DelSig_DSM_CR7_REG     = ADC_DelSig_CFG3_DSM_CR7;
1411:Generated_Source\PSoC5/ADC_DelSig.c ****             ADC_DelSig_DSM_CR10_REG    = ADC_DelSig_CFG3_DSM_CR10;
1412:Generated_Source\PSoC5/ADC_DelSig.c ****             ADC_DelSig_DSM_CR11_REG    = ADC_DelSig_CFG3_DSM_CR11;
1413:Generated_Source\PSoC5/ADC_DelSig.c ****             ADC_DelSig_DSM_CR12_REG    = ADC_DelSig_CFG3_DSM_CR12;
1414:Generated_Source\PSoC5/ADC_DelSig.c ****             ADC_DelSig_DSM_CR14_REG    = ADC_DelSig_CFG3_DSM_CR14;
1415:Generated_Source\PSoC5/ADC_DelSig.c ****             ADC_DelSig_DSM_CR15_REG    = ADC_DelSig_CFG3_DSM_CR15;
1416:Generated_Source\PSoC5/ADC_DelSig.c ****             ADC_DelSig_DSM_CR16_REG    = ADC_DelSig_CFG3_DSM_CR16;
1417:Generated_Source\PSoC5/ADC_DelSig.c ****             ADC_DelSig_DSM_CR17_REG    = ADC_DelSig_CFG3_DSM_CR17;
1418:Generated_Source\PSoC5/ADC_DelSig.c ****             /* Set DSM_REF0_REG by disabling and enabling the PRESS circuit */
1419:Generated_Source\PSoC5/ADC_DelSig.c ****             ADC_DelSig_SetDSMRef0Reg(ADC_DelSig_CFG3_DSM_REF0);
1420:Generated_Source\PSoC5/ADC_DelSig.c ****             ADC_DelSig_DSM_REF2_REG    = ADC_DelSig_CFG3_DSM_REF2;
1421:Generated_Source\PSoC5/ADC_DelSig.c ****             ADC_DelSig_DSM_REF3_REG    = ADC_DelSig_CFG3_DSM_REF3;
1422:Generated_Source\PSoC5/ADC_DelSig.c **** 
1423:Generated_Source\PSoC5/ADC_DelSig.c ****             ADC_DelSig_DSM_BUF0_REG    = ADC_DelSig_CFG3_DSM_BUF0;
1424:Generated_Source\PSoC5/ADC_DelSig.c ****             ADC_DelSig_DSM_BUF1_REG    = ADC_DelSig_CFG3_DSM_BUF1;
1425:Generated_Source\PSoC5/ADC_DelSig.c ****             ADC_DelSig_DSM_BUF2_REG    = ADC_DelSig_CFG3_DSM_BUF2;
1426:Generated_Source\PSoC5/ADC_DelSig.c ****             ADC_DelSig_DSM_BUF3_REG    = ADC_DelSig_CFG3_DSM_BUF3;
1427:Generated_Source\PSoC5/ADC_DelSig.c **** 
1428:Generated_Source\PSoC5/ADC_DelSig.c ****             /* To select either Vssa or Vref to -ve input of DSM depending on
1429:Generated_Source\PSoC5/ADC_DelSig.c ****             *  the input range selected.
1430:Generated_Source\PSoC5/ADC_DelSig.c ****             */
1431:Generated_Source\PSoC5/ADC_DelSig.c ****             #if(ADC_DelSig_DEFAULT_INPUT_MODE)
1432:Generated_Source\PSoC5/ADC_DelSig.c ****                 #if (ADC_DelSig_CFG3_INPUT_RANGE == ADC_DelSig_IR_VSSA_TO_2VREF)
1433:Generated_Source\PSoC5/ADC_DelSig.c ****                     ADC_DelSig_AMux_Select(1u);
1434:Generated_Source\PSoC5/ADC_DelSig.c ****                 #else
1435:Generated_Source\PSoC5/ADC_DelSig.c ****                     ADC_DelSig_AMux_Select(0u);
1436:Generated_Source\PSoC5/ADC_DelSig.c ****                 #endif /* ADC_DelSig_IR_VSSA_TO_2VREF) */
1437:Generated_Source\PSoC5/ADC_DelSig.c ****             #endif /* ADC_DelSig_DEFAULT_INPUT_MODE */
1438:Generated_Source\PSoC5/ADC_DelSig.c **** 
1439:Generated_Source\PSoC5/ADC_DelSig.c ****             /* Set the Conversion stop if resolution is above 16 bit and
1440:Generated_Source\PSoC5/ADC_DelSig.c ****                conversion  mode is Single sample */
1441:Generated_Source\PSoC5/ADC_DelSig.c ****             #if(ADC_DelSig_CFG3_RESOLUTION > 16 && \
1442:Generated_Source\PSoC5/ADC_DelSig.c ****                 ADC_DelSig_CFG3_CONV_MODE == ADC_DelSig_MODE_SINGLE_SAMPLE)
1443:Generated_Source\PSoC5/ADC_DelSig.c ****                 ADC_DelSig_stopConversion = 1u;
1444:Generated_Source\PSoC5/ADC_DelSig.c ****             #endif /* Single sample with resolution above 16 bits */
1445:Generated_Source\PSoC5/ADC_DelSig.c **** 
1446:Generated_Source\PSoC5/ADC_DelSig.c ****             ADC_DelSig_CountsPerVolt = (int32)ADC_DelSig_CFG3_COUNTS_PER_VOLT;
1447:Generated_Source\PSoC5/ADC_DelSig.c **** 
1448:Generated_Source\PSoC5/ADC_DelSig.c ****             ADC_DelSig_Ext_CP_Clk_SetDividerRegister(ADC_DelSig_CFG3_CP_CLK_DIVIDER, 1u);
1449:Generated_Source\PSoC5/ADC_DelSig.c **** 
1450:Generated_Source\PSoC5/ADC_DelSig.c ****             /* This is only valid if there is an internal clock */
1451:Generated_Source\PSoC5/ADC_DelSig.c ****             #if(ADC_DelSig_DEFAULT_INTERNAL_CLK)
1452:Generated_Source\PSoC5/ADC_DelSig.c ****                 ADC_DelSig_theACLK_SetDividerRegister(ADC_DelSig_CFG3_ADC_CLK_DIVIDER, 1u);
1453:Generated_Source\PSoC5/ADC_DelSig.c ****             #endif /* ADC_DelSig_DEFAULT_INTERNAL_CLK */
1454:Generated_Source\PSoC5/ADC_DelSig.c **** 
1455:Generated_Source\PSoC5/ADC_DelSig.c ****             #if(ADC_DelSig_IRQ_REMOVE == 0u)
1456:Generated_Source\PSoC5/ADC_DelSig.c ****                 /* Set interrupt vector */
ARM GAS  C:\Users\rcaravac\AppData\Local\Temp\ccauAhrg.s 			page 60


1457:Generated_Source\PSoC5/ADC_DelSig.c ****                 (void)CyIntSetVector(ADC_DelSig_INTC_NUMBER, &ADC_DelSig_ISR3);
1458:Generated_Source\PSoC5/ADC_DelSig.c ****             #endif   /* End ADC_DelSig_IRQ_REMOVE */
1459:Generated_Source\PSoC5/ADC_DelSig.c ****         }
1460:Generated_Source\PSoC5/ADC_DelSig.c ****     #endif /* ADC_DelSig_DEFAULT_NUM_CONFIGS > 2 */
1461:Generated_Source\PSoC5/ADC_DelSig.c **** 
1462:Generated_Source\PSoC5/ADC_DelSig.c ****     #if(ADC_DelSig_DEFAULT_NUM_CONFIGS > 3)
1463:Generated_Source\PSoC5/ADC_DelSig.c ****         if (config == 4u)
1464:Generated_Source\PSoC5/ADC_DelSig.c ****         {
1465:Generated_Source\PSoC5/ADC_DelSig.c ****             /* Fourth Config */
1466:Generated_Source\PSoC5/ADC_DelSig.c ****             ADC_DelSig_DEC_CR_REG      = ADC_DelSig_CFG4_DEC_CR;
1467:Generated_Source\PSoC5/ADC_DelSig.c ****             ADC_DelSig_DEC_SHIFT1_REG  = ADC_DelSig_CFG4_DEC_SHIFT1;
1468:Generated_Source\PSoC5/ADC_DelSig.c ****             ADC_DelSig_DEC_SHIFT2_REG  = ADC_DelSig_CFG4_DEC_SHIFT2;
1469:Generated_Source\PSoC5/ADC_DelSig.c ****             ADC_DelSig_DEC_DR2_REG     = ADC_DelSig_CFG4_DEC_DR2;
1470:Generated_Source\PSoC5/ADC_DelSig.c ****             ADC_DelSig_DEC_DR2H_REG    = ADC_DelSig_CFG4_DEC_DR2H;
1471:Generated_Source\PSoC5/ADC_DelSig.c ****             ADC_DelSig_DEC_DR1_REG     = ADC_DelSig_CFG4_DEC_DR1;
1472:Generated_Source\PSoC5/ADC_DelSig.c ****             ADC_DelSig_DEC_OCOR_REG    = ADC_DelSig_CFG4_DEC_OCOR;
1473:Generated_Source\PSoC5/ADC_DelSig.c ****             ADC_DelSig_DEC_OCORM_REG   = ADC_DelSig_CFG4_DEC_OCORM;
1474:Generated_Source\PSoC5/ADC_DelSig.c ****             ADC_DelSig_DEC_OCORH_REG   = ADC_DelSig_CFG4_DEC_OCORH;
1475:Generated_Source\PSoC5/ADC_DelSig.c ****             ADC_DelSig_DEC_COHER_REG   = ADC_DelSig_CFG4_DEC_COHER;
1476:Generated_Source\PSoC5/ADC_DelSig.c **** 
1477:Generated_Source\PSoC5/ADC_DelSig.c ****             ADC_DelSig_DSM_CR4_REG     = ADC_DelSig_CFG4_DSM_CR4;
1478:Generated_Source\PSoC5/ADC_DelSig.c ****             ADC_DelSig_DSM_CR5_REG     = ADC_DelSig_CFG4_DSM_CR5;
1479:Generated_Source\PSoC5/ADC_DelSig.c ****             ADC_DelSig_DSM_CR6_REG     = ADC_DelSig_CFG4_DSM_CR6;
1480:Generated_Source\PSoC5/ADC_DelSig.c ****             ADC_DelSig_DSM_CR7_REG     = ADC_DelSig_CFG4_DSM_CR7;
1481:Generated_Source\PSoC5/ADC_DelSig.c ****             ADC_DelSig_DSM_CR10_REG    = ADC_DelSig_CFG4_DSM_CR10;
1482:Generated_Source\PSoC5/ADC_DelSig.c ****             ADC_DelSig_DSM_CR11_REG    = ADC_DelSig_CFG4_DSM_CR11;
1483:Generated_Source\PSoC5/ADC_DelSig.c ****             ADC_DelSig_DSM_CR12_REG    = ADC_DelSig_CFG4_DSM_CR12;
1484:Generated_Source\PSoC5/ADC_DelSig.c ****             ADC_DelSig_DSM_CR14_REG    = ADC_DelSig_CFG4_DSM_CR14;
1485:Generated_Source\PSoC5/ADC_DelSig.c ****             ADC_DelSig_DSM_CR15_REG    = ADC_DelSig_CFG4_DSM_CR15;
1486:Generated_Source\PSoC5/ADC_DelSig.c ****             ADC_DelSig_DSM_CR16_REG    = ADC_DelSig_CFG4_DSM_CR16;
1487:Generated_Source\PSoC5/ADC_DelSig.c ****             ADC_DelSig_DSM_CR17_REG    = ADC_DelSig_CFG4_DSM_CR17;
1488:Generated_Source\PSoC5/ADC_DelSig.c ****             /* Set DSM_REF0_REG by disabling and enabling the PRESS circuit */
1489:Generated_Source\PSoC5/ADC_DelSig.c ****             ADC_DelSig_SetDSMRef0Reg(ADC_DelSig_CFG4_DSM_REF0);
1490:Generated_Source\PSoC5/ADC_DelSig.c ****             ADC_DelSig_DSM_REF2_REG    = ADC_DelSig_CFG4_DSM_REF2;
1491:Generated_Source\PSoC5/ADC_DelSig.c ****             ADC_DelSig_DSM_REF3_REG    = ADC_DelSig_CFG4_DSM_REF3;
1492:Generated_Source\PSoC5/ADC_DelSig.c **** 
1493:Generated_Source\PSoC5/ADC_DelSig.c ****             ADC_DelSig_DSM_BUF0_REG    = ADC_DelSig_CFG4_DSM_BUF0;
1494:Generated_Source\PSoC5/ADC_DelSig.c ****             ADC_DelSig_DSM_BUF1_REG    = ADC_DelSig_CFG4_DSM_BUF1;
1495:Generated_Source\PSoC5/ADC_DelSig.c ****             ADC_DelSig_DSM_BUF2_REG    = ADC_DelSig_CFG4_DSM_BUF2;
1496:Generated_Source\PSoC5/ADC_DelSig.c ****             ADC_DelSig_DSM_BUF3_REG    = ADC_DelSig_CFG4_DSM_BUF3;
1497:Generated_Source\PSoC5/ADC_DelSig.c **** 
1498:Generated_Source\PSoC5/ADC_DelSig.c ****             /* To select either Vssa or Vref to -ve input of DSM depending on
1499:Generated_Source\PSoC5/ADC_DelSig.c ****             *  the input range selected.
1500:Generated_Source\PSoC5/ADC_DelSig.c ****             */
1501:Generated_Source\PSoC5/ADC_DelSig.c ****             #if(ADC_DelSig_DEFAULT_INPUT_MODE)
1502:Generated_Source\PSoC5/ADC_DelSig.c ****                 #if (ADC_DelSig_CFG4_INPUT_RANGE == ADC_DelSig_IR_VSSA_TO_2VREF)
1503:Generated_Source\PSoC5/ADC_DelSig.c ****                     ADC_DelSig_AMux_Select(1u);
1504:Generated_Source\PSoC5/ADC_DelSig.c ****                 #else
1505:Generated_Source\PSoC5/ADC_DelSig.c ****                     ADC_DelSig_AMux_Select(0u);
1506:Generated_Source\PSoC5/ADC_DelSig.c ****                 #endif /* ADC_DelSig_IR_VSSA_TO_2VREF) */
1507:Generated_Source\PSoC5/ADC_DelSig.c ****             #endif /* ADC_DelSig_DEFAULT_INPUT_MODE */
1508:Generated_Source\PSoC5/ADC_DelSig.c **** 
1509:Generated_Source\PSoC5/ADC_DelSig.c ****             /* Set the Conversion stop if resolution is above 16 bit and
1510:Generated_Source\PSoC5/ADC_DelSig.c ****                conversion mode is Single sample */
1511:Generated_Source\PSoC5/ADC_DelSig.c ****             #if(ADC_DelSig_CFG4_RESOLUTION > 16 && \
1512:Generated_Source\PSoC5/ADC_DelSig.c ****                 ADC_DelSig_CFG4_CONV_MODE == ADC_DelSig_MODE_SINGLE_SAMPLE)
1513:Generated_Source\PSoC5/ADC_DelSig.c ****                 ADC_DelSig_stopConversion = 1u;
ARM GAS  C:\Users\rcaravac\AppData\Local\Temp\ccauAhrg.s 			page 61


1514:Generated_Source\PSoC5/ADC_DelSig.c ****             #endif /* Single sample with resolution above 16 bits */
1515:Generated_Source\PSoC5/ADC_DelSig.c **** 
1516:Generated_Source\PSoC5/ADC_DelSig.c ****             ADC_DelSig_CountsPerVolt = (int32)ADC_DelSig_CFG4_COUNTS_PER_VOLT;
1517:Generated_Source\PSoC5/ADC_DelSig.c **** 
1518:Generated_Source\PSoC5/ADC_DelSig.c ****             ADC_DelSig_Ext_CP_Clk_SetDividerRegister(ADC_DelSig_CFG4_CP_CLK_DIVIDER, 1u);
1519:Generated_Source\PSoC5/ADC_DelSig.c **** 
1520:Generated_Source\PSoC5/ADC_DelSig.c ****             /* This is only valid if there is an internal clock */
1521:Generated_Source\PSoC5/ADC_DelSig.c ****             #if(ADC_DelSig_DEFAULT_INTERNAL_CLK)
1522:Generated_Source\PSoC5/ADC_DelSig.c ****                 ADC_DelSig_theACLK_SetDividerRegister(ADC_DelSig_CFG4_ADC_CLK_DIVIDER, 1u);
1523:Generated_Source\PSoC5/ADC_DelSig.c ****             #endif /* ADC_DelSig_DEFAULT_INTERNAL_CLK */
1524:Generated_Source\PSoC5/ADC_DelSig.c **** 
1525:Generated_Source\PSoC5/ADC_DelSig.c ****             #if(ADC_DelSig_IRQ_REMOVE == 0u)
1526:Generated_Source\PSoC5/ADC_DelSig.c ****                 /* Set interrupt vector */
1527:Generated_Source\PSoC5/ADC_DelSig.c ****                 (void)CyIntSetVector(ADC_DelSig_INTC_NUMBER, &ADC_DelSig_ISR4);
1528:Generated_Source\PSoC5/ADC_DelSig.c ****             #endif   /* End ADC_DelSig_IRQ_REMOVE */
1529:Generated_Source\PSoC5/ADC_DelSig.c ****         }
1530:Generated_Source\PSoC5/ADC_DelSig.c ****     #endif /* ADC_DelSig_DEFAULT_NUM_CONFIGS > 3 */
1531:Generated_Source\PSoC5/ADC_DelSig.c **** }
 1908              		.loc 1 1531 0
 1909 00e2 00BF     		nop
 1910 00e4 0837     		adds	r7, r7, #8
 1911              		.cfi_def_cfa_offset 8
 1912 00e6 BD46     		mov	sp, r7
 1913              		.cfi_def_cfa_register 13
 1914              		@ sp needed
 1915 00e8 80BD     		pop	{r7, pc}
 1916              	.L103:
 1917 00ea 00BF     		.align	2
 1918              	.L102:
 1919 00ec 00000000 		.word	ADC_DelSig_stopConversion
 1920 00f0 004E0040 		.word	1073761792
 1921 00f4 024E0040 		.word	1073761794
 1922 00f8 034E0040 		.word	1073761795
 1923 00fc 044E0040 		.word	1073761796
 1924 0100 054E0040 		.word	1073761797
 1925 0104 064E0040 		.word	1073761798
 1926 0108 084E0040 		.word	1073761800
 1927 010c 094E0040 		.word	1073761801
 1928 0110 0A4E0040 		.word	1073761802
 1929 0114 144E0040 		.word	1073761812
 1930 0118 84580040 		.word	1073764484
 1931 011c 85580040 		.word	1073764485
 1932 0120 86580040 		.word	1073764486
 1933 0124 87580040 		.word	1073764487
 1934 0128 8A580040 		.word	1073764490
 1935 012c 8B580040 		.word	1073764491
 1936 0130 8C580040 		.word	1073764492
 1937 0134 8E580040 		.word	1073764494
 1938 0138 8F580040 		.word	1073764495
 1939 013c 90580040 		.word	1073764496
 1940 0140 91580040 		.word	1073764497
 1941 0144 94580040 		.word	1073764500
 1942 0148 95580040 		.word	1073764501
 1943 014c 9A580040 		.word	1073764506
 1944 0150 9B580040 		.word	1073764507
 1945 0154 9C580040 		.word	1073764508
 1946 0158 9D580040 		.word	1073764509
ARM GAS  C:\Users\rcaravac\AppData\Local\Temp\ccauAhrg.s 			page 62


 1947 015c 00000000 		.word	ADC_DelSig_CountsPerVolt
 1948 0160 00000000 		.word	ADC_DelSig_ISR1
 1949              		.cfi_endproc
 1950              	.LFE19:
 1951              		.size	ADC_DelSig_InitConfig, .-ADC_DelSig_InitConfig
 1952              		.section	.text.ADC_DelSig_SelectConfiguration,"ax",%progbits
 1953              		.align	2
 1954              		.global	ADC_DelSig_SelectConfiguration
 1955              		.thumb
 1956              		.thumb_func
 1957              		.type	ADC_DelSig_SelectConfiguration, %function
 1958              	ADC_DelSig_SelectConfiguration:
 1959              	.LFB20:
1532:Generated_Source\PSoC5/ADC_DelSig.c **** 
1533:Generated_Source\PSoC5/ADC_DelSig.c **** 
1534:Generated_Source\PSoC5/ADC_DelSig.c **** /*******************************************************************************
1535:Generated_Source\PSoC5/ADC_DelSig.c **** * Function Name: ADC_DelSig_SelectCofiguration
1536:Generated_Source\PSoC5/ADC_DelSig.c **** ********************************************************************************
1537:Generated_Source\PSoC5/ADC_DelSig.c **** *
1538:Generated_Source\PSoC5/ADC_DelSig.c **** * Summary:
1539:Generated_Source\PSoC5/ADC_DelSig.c **** *  Sets one of up to four ADC configurations. Before setting the new
1540:Generated_Source\PSoC5/ADC_DelSig.c **** *  configuration, the ADC is stopped and powered down. After setting
1541:Generated_Source\PSoC5/ADC_DelSig.c **** *  the new configuration, the ADC can be powered and conversion
1542:Generated_Source\PSoC5/ADC_DelSig.c **** *  can be restarted depending up on the value of second parameter
1543:Generated_Source\PSoC5/ADC_DelSig.c **** *  restart. If the value of this parameter is 1, then ADC will be
1544:Generated_Source\PSoC5/ADC_DelSig.c **** *  restarted. If this value is zero, then user must call ADC_DelSig_Start
1545:Generated_Source\PSoC5/ADC_DelSig.c **** *  and ADC_DelSig_StartConvert() to restart the conversion.
1546:Generated_Source\PSoC5/ADC_DelSig.c **** *
1547:Generated_Source\PSoC5/ADC_DelSig.c **** * Parameters:
1548:Generated_Source\PSoC5/ADC_DelSig.c **** *  config:  configuration user wants to select.
1549:Generated_Source\PSoC5/ADC_DelSig.c **** *           Valid range: 1..4
1550:Generated_Source\PSoC5/ADC_DelSig.c **** *  restart:  Restart option. 1 means start the ADC and restart the conversion.
1551:Generated_Source\PSoC5/ADC_DelSig.c **** *                            0 means do not start the ADC and conversion.
1552:Generated_Source\PSoC5/ADC_DelSig.c **** *
1553:Generated_Source\PSoC5/ADC_DelSig.c **** * Return:
1554:Generated_Source\PSoC5/ADC_DelSig.c **** *  None
1555:Generated_Source\PSoC5/ADC_DelSig.c **** *
1556:Generated_Source\PSoC5/ADC_DelSig.c **** * Side Effects: 
1557:Generated_Source\PSoC5/ADC_DelSig.c **** *  Enables internal interrupt.
1558:Generated_Source\PSoC5/ADC_DelSig.c **** *
1559:Generated_Source\PSoC5/ADC_DelSig.c **** *******************************************************************************/
1560:Generated_Source\PSoC5/ADC_DelSig.c **** void ADC_DelSig_SelectConfiguration(uint8 config, uint8 restart)
1561:Generated_Source\PSoC5/ADC_DelSig.c ****                                               
1562:Generated_Source\PSoC5/ADC_DelSig.c **** {
 1960              		.loc 1 1562 0
 1961              		.cfi_startproc
 1962              		@ args = 0, pretend = 0, frame = 8
 1963              		@ frame_needed = 1, uses_anonymous_args = 0
 1964 0000 80B5     		push	{r7, lr}
 1965              		.cfi_def_cfa_offset 8
 1966              		.cfi_offset 7, -8
 1967              		.cfi_offset 14, -4
 1968 0002 82B0     		sub	sp, sp, #8
 1969              		.cfi_def_cfa_offset 16
 1970 0004 00AF     		add	r7, sp, #0
 1971              		.cfi_def_cfa_register 7
 1972 0006 0346     		mov	r3, r0
ARM GAS  C:\Users\rcaravac\AppData\Local\Temp\ccauAhrg.s 			page 63


 1973 0008 0A46     		mov	r2, r1
 1974 000a FB71     		strb	r3, [r7, #7]
 1975 000c 1346     		mov	r3, r2
 1976 000e BB71     		strb	r3, [r7, #6]
1563:Generated_Source\PSoC5/ADC_DelSig.c ****     /* Check whether the configuration number is valid or not */
1564:Generated_Source\PSoC5/ADC_DelSig.c ****     if((config > 0u) && (config <= ADC_DelSig_DEFAULT_NUM_CONFIGS))
 1977              		.loc 1 1564 0
 1978 0010 FB79     		ldrb	r3, [r7, #7]	@ zero_extendqisi2
 1979 0012 002B     		cmp	r3, #0
 1980 0014 29D0     		beq	.L105
 1981              		.loc 1 1564 0 is_stmt 0 discriminator 1
 1982 0016 FB79     		ldrb	r3, [r7, #7]	@ zero_extendqisi2
 1983 0018 012B     		cmp	r3, #1
 1984 001a 26D8     		bhi	.L105
1565:Generated_Source\PSoC5/ADC_DelSig.c ****     {
1566:Generated_Source\PSoC5/ADC_DelSig.c ****         /* Set the flag to ensure Start() API doesn't override the 
1567:Generated_Source\PSoC5/ADC_DelSig.c **** 		*  selected configuration
1568:Generated_Source\PSoC5/ADC_DelSig.c **** 		*/
1569:Generated_Source\PSoC5/ADC_DelSig.c ****         if(ADC_DelSig_initVar == 0u)
 1985              		.loc 1 1569 0 is_stmt 1
 1986 001c 164B     		ldr	r3, .L109
 1987 001e 1B78     		ldrb	r3, [r3]	@ zero_extendqisi2
 1988 0020 002B     		cmp	r3, #0
 1989 0022 02D1     		bne	.L106
1570:Generated_Source\PSoC5/ADC_DelSig.c ****         {
1571:Generated_Source\PSoC5/ADC_DelSig.c ****             ADC_DelSig_started = 1u;
 1990              		.loc 1 1571 0
 1991 0024 154B     		ldr	r3, .L109+4
 1992 0026 0122     		movs	r2, #1
 1993 0028 1A70     		strb	r2, [r3]
 1994              	.L106:
1572:Generated_Source\PSoC5/ADC_DelSig.c ****         }
1573:Generated_Source\PSoC5/ADC_DelSig.c **** 
1574:Generated_Source\PSoC5/ADC_DelSig.c ****         /* Update the config flag */
1575:Generated_Source\PSoC5/ADC_DelSig.c ****         ADC_DelSig_Config = config;
 1995              		.loc 1 1575 0
 1996 002a 154A     		ldr	r2, .L109+8
 1997 002c FB79     		ldrb	r3, [r7, #7]
 1998 002e 1370     		strb	r3, [r2]
1576:Generated_Source\PSoC5/ADC_DelSig.c **** 
1577:Generated_Source\PSoC5/ADC_DelSig.c ****         /* Stop the ADC  */
1578:Generated_Source\PSoC5/ADC_DelSig.c ****         ADC_DelSig_Stop();
 1999              		.loc 1 1578 0
 2000 0030 FFF7FEFF 		bl	ADC_DelSig_Stop
1579:Generated_Source\PSoC5/ADC_DelSig.c **** 
1580:Generated_Source\PSoC5/ADC_DelSig.c ****         /* Set the  ADC registers based on the configuration */
1581:Generated_Source\PSoC5/ADC_DelSig.c ****         ADC_DelSig_InitConfig(config);
 2001              		.loc 1 1581 0
 2002 0034 FB79     		ldrb	r3, [r7, #7]	@ zero_extendqisi2
 2003 0036 1846     		mov	r0, r3
 2004 0038 FFF7FEFF 		bl	ADC_DelSig_InitConfig
1582:Generated_Source\PSoC5/ADC_DelSig.c **** 
1583:Generated_Source\PSoC5/ADC_DelSig.c ****         /* Compensate the gain */
1584:Generated_Source\PSoC5/ADC_DelSig.c ****         ADC_DelSig_DEC_GVAL_REG = ADC_DelSig_gcor[config - 1u].gval;
 2005              		.loc 1 1584 0
 2006 003c 114A     		ldr	r2, .L109+12
 2007 003e FB79     		ldrb	r3, [r7, #7]	@ zero_extendqisi2
ARM GAS  C:\Users\rcaravac\AppData\Local\Temp\ccauAhrg.s 			page 64


 2008 0040 013B     		subs	r3, r3, #1
 2009 0042 1149     		ldr	r1, .L109+16
 2010 0044 9B00     		lsls	r3, r3, #2
 2011 0046 0B44     		add	r3, r3, r1
 2012 0048 9B78     		ldrb	r3, [r3, #2]	@ zero_extendqisi2
 2013 004a 1370     		strb	r3, [r2]
1585:Generated_Source\PSoC5/ADC_DelSig.c ****         CY_SET_REG16(ADC_DelSig_DEC_GCOR_16B_PTR, ADC_DelSig_gcor[config - 1u].gcor);
 2014              		.loc 1 1585 0
 2015 004c 0F4A     		ldr	r2, .L109+20
 2016 004e FB79     		ldrb	r3, [r7, #7]	@ zero_extendqisi2
 2017 0050 013B     		subs	r3, r3, #1
 2018 0052 0D49     		ldr	r1, .L109+16
 2019 0054 31F82330 		ldrh	r3, [r1, r3, lsl #2]
 2020 0058 1380     		strh	r3, [r2]	@ movhi
1586:Generated_Source\PSoC5/ADC_DelSig.c **** 
1587:Generated_Source\PSoC5/ADC_DelSig.c ****         if(restart == 1u)
 2021              		.loc 1 1587 0
 2022 005a BB79     		ldrb	r3, [r7, #6]	@ zero_extendqisi2
 2023 005c 012B     		cmp	r3, #1
 2024 005e 07D1     		bne	.L108
1588:Generated_Source\PSoC5/ADC_DelSig.c ****         {
1589:Generated_Source\PSoC5/ADC_DelSig.c ****             /* Restart the ADC */
1590:Generated_Source\PSoC5/ADC_DelSig.c ****             ADC_DelSig_Start();
 2025              		.loc 1 1590 0
 2026 0060 FFF7FEFF 		bl	ADC_DelSig_Start
1591:Generated_Source\PSoC5/ADC_DelSig.c **** 
1592:Generated_Source\PSoC5/ADC_DelSig.c ****             /* Restart the ADC conversion */
1593:Generated_Source\PSoC5/ADC_DelSig.c ****             ADC_DelSig_StartConvert();
 2027              		.loc 1 1593 0
 2028 0064 FFF7FEFF 		bl	ADC_DelSig_StartConvert
1587:Generated_Source\PSoC5/ADC_DelSig.c ****         {
 2029              		.loc 1 1587 0
 2030 0068 02E0     		b	.L108
 2031              	.L105:
1594:Generated_Source\PSoC5/ADC_DelSig.c ****         }
1595:Generated_Source\PSoC5/ADC_DelSig.c ****     }
1596:Generated_Source\PSoC5/ADC_DelSig.c ****     else
1597:Generated_Source\PSoC5/ADC_DelSig.c ****     {
1598:Generated_Source\PSoC5/ADC_DelSig.c ****         /* Halt CPU in debug mode if config is out of valid range */
1599:Generated_Source\PSoC5/ADC_DelSig.c ****         CYASSERT(0u != 0u);
 2032              		.loc 1 1599 0 discriminator 1
 2033 006a 0020     		movs	r0, #0
 2034 006c FFF7FEFF 		bl	CyHalt
 2035              	.L108:
1600:Generated_Source\PSoC5/ADC_DelSig.c ****     }
1601:Generated_Source\PSoC5/ADC_DelSig.c **** }
 2036              		.loc 1 1601 0
 2037 0070 00BF     		nop
 2038 0072 0837     		adds	r7, r7, #8
 2039              		.cfi_def_cfa_offset 8
 2040 0074 BD46     		mov	sp, r7
 2041              		.cfi_def_cfa_register 13
 2042              		@ sp needed
 2043 0076 80BD     		pop	{r7, pc}
 2044              	.L110:
 2045              		.align	2
 2046              	.L109:
ARM GAS  C:\Users\rcaravac\AppData\Local\Temp\ccauAhrg.s 			page 65


 2047 0078 00000000 		.word	ADC_DelSig_initVar
 2048 007c 00000000 		.word	ADC_DelSig_started
 2049 0080 00000000 		.word	ADC_DelSig_Config
 2050 0084 0E4E0040 		.word	1073761806
 2051 0088 08000000 		.word	ADC_DelSig_gcor
 2052 008c 0C4E0040 		.word	1073761804
 2053              		.cfi_endproc
 2054              	.LFE20:
 2055              		.size	ADC_DelSig_SelectConfiguration, .-ADC_DelSig_SelectConfiguration
 2056              		.section	.text.ADC_DelSig_GainCompensation,"ax",%progbits
 2057              		.align	2
 2058              		.thumb
 2059              		.thumb_func
 2060              		.type	ADC_DelSig_GainCompensation, %function
 2061              	ADC_DelSig_GainCompensation:
 2062              	.LFB21:
1602:Generated_Source\PSoC5/ADC_DelSig.c **** 
1603:Generated_Source\PSoC5/ADC_DelSig.c **** 
1604:Generated_Source\PSoC5/ADC_DelSig.c **** /*******************************************************************************
1605:Generated_Source\PSoC5/ADC_DelSig.c **** * Function Name: ADC_DelSig_GainCompensation
1606:Generated_Source\PSoC5/ADC_DelSig.c **** ********************************************************************************
1607:Generated_Source\PSoC5/ADC_DelSig.c **** *
1608:Generated_Source\PSoC5/ADC_DelSig.c **** * Summary:
1609:Generated_Source\PSoC5/ADC_DelSig.c **** *  This API calculates the trim value and then store this to gcor structure.
1610:Generated_Source\PSoC5/ADC_DelSig.c **** *
1611:Generated_Source\PSoC5/ADC_DelSig.c **** * Parameters:
1612:Generated_Source\PSoC5/ADC_DelSig.c **** *  inputRange:  input range for which trim value is to be calculated.
1613:Generated_Source\PSoC5/ADC_DelSig.c **** *  IdealDecGain:  Ideal Decimator gain for the selected resolution and
1614:Generated_Source\PSoC5/ADC_DelSig.c **** *                 conversion  mode.
1615:Generated_Source\PSoC5/ADC_DelSig.c **** *  IdealOddDecGain:  Ideal odd decimation gain for the selected resolution and
1616:Generated_Source\PSoC5/ADC_DelSig.c ****                      conversion mode.
1617:Generated_Source\PSoC5/ADC_DelSig.c **** *  resolution:  Resolution to select the proper flash location for trim value.
1618:Generated_Source\PSoC5/ADC_DelSig.c **** *  config:      Specifies the configuration number
1619:Generated_Source\PSoC5/ADC_DelSig.c **** *               Valid range: 1..4
1620:Generated_Source\PSoC5/ADC_DelSig.c **** *
1621:Generated_Source\PSoC5/ADC_DelSig.c **** * Return:
1622:Generated_Source\PSoC5/ADC_DelSig.c **** *  None
1623:Generated_Source\PSoC5/ADC_DelSig.c **** *
1624:Generated_Source\PSoC5/ADC_DelSig.c **** *******************************************************************************/
1625:Generated_Source\PSoC5/ADC_DelSig.c **** static void ADC_DelSig_GainCompensation(uint8 inputRange, uint16 idealDecGain, uint16 idealOddDecGa
1626:Generated_Source\PSoC5/ADC_DelSig.c ****                               uint8 resolution, uint8 config) 
1627:Generated_Source\PSoC5/ADC_DelSig.c **** {
 2063              		.loc 1 1627 0
 2064              		.cfi_startproc
 2065              		@ args = 4, pretend = 0, frame = 24
 2066              		@ frame_needed = 1, uses_anonymous_args = 0
 2067 0000 90B5     		push	{r4, r7, lr}
 2068              		.cfi_def_cfa_offset 12
 2069              		.cfi_offset 4, -12
 2070              		.cfi_offset 7, -8
 2071              		.cfi_offset 14, -4
 2072 0002 87B0     		sub	sp, sp, #28
 2073              		.cfi_def_cfa_offset 40
 2074 0004 00AF     		add	r7, sp, #0
 2075              		.cfi_def_cfa_register 7
 2076 0006 0446     		mov	r4, r0
 2077 0008 0846     		mov	r0, r1
ARM GAS  C:\Users\rcaravac\AppData\Local\Temp\ccauAhrg.s 			page 66


 2078 000a 1146     		mov	r1, r2
 2079 000c 1A46     		mov	r2, r3
 2080 000e 2346     		mov	r3, r4
 2081 0010 FB71     		strb	r3, [r7, #7]
 2082 0012 0346     		mov	r3, r0	@ movhi
 2083 0014 BB80     		strh	r3, [r7, #4]	@ movhi
 2084 0016 0B46     		mov	r3, r1	@ movhi
 2085 0018 7B80     		strh	r3, [r7, #2]	@ movhi
 2086 001a 1346     		mov	r3, r2
 2087 001c BB71     		strb	r3, [r7, #6]
1628:Generated_Source\PSoC5/ADC_DelSig.c ****     int8 flash;
1629:Generated_Source\PSoC5/ADC_DelSig.c **** 	int32 normalised;
1630:Generated_Source\PSoC5/ADC_DelSig.c **** 	uint16 gcorValue;
1631:Generated_Source\PSoC5/ADC_DelSig.c ****     uint32 gcorTmp;
1632:Generated_Source\PSoC5/ADC_DelSig.c **** 
1633:Generated_Source\PSoC5/ADC_DelSig.c ****     if((config > 0u) && (config <= ADC_DelSig_DEFAULT_NUM_CONFIGS))
 2088              		.loc 1 1633 0
 2089 001e 97F82830 		ldrb	r3, [r7, #40]	@ zero_extendqisi2
 2090 0022 002B     		cmp	r3, #0
 2091 0024 00F08B80 		beq	.L112
 2092              		.loc 1 1633 0 is_stmt 0 discriminator 1
 2093 0028 97F82830 		ldrb	r3, [r7, #40]	@ zero_extendqisi2
 2094 002c 012B     		cmp	r3, #1
 2095 002e 00F28680 		bhi	.L112
1634:Generated_Source\PSoC5/ADC_DelSig.c ****     {
1635:Generated_Source\PSoC5/ADC_DelSig.c ****         switch(inputRange)
 2096              		.loc 1 1635 0 is_stmt 1
 2097 0032 FB79     		ldrb	r3, [r7, #7]	@ zero_extendqisi2
 2098 0034 013B     		subs	r3, r3, #1
 2099 0036 092B     		cmp	r3, #9
 2100 0038 4AD8     		bhi	.L113
 2101 003a 01A2     		adr	r2, .L115
 2102 003c 52F823F0 		ldr	pc, [r2, r3, lsl #2]
 2103              		.p2align 2
 2104              	.L115:
 2105 0040 69000000 		.word	.L114+1
 2106 0044 D1000000 		.word	.L113+1
 2107 0048 D1000000 		.word	.L113+1
 2108 004c 69000000 		.word	.L114+1
 2109 0050 D1000000 		.word	.L113+1
 2110 0054 D1000000 		.word	.L113+1
 2111 0058 83000000 		.word	.L116+1
 2112 005c 9D000000 		.word	.L117+1
 2113 0060 D1000000 		.word	.L113+1
 2114 0064 B7000000 		.word	.L118+1
 2115              		.p2align 1
 2116              	.L114:
1636:Generated_Source\PSoC5/ADC_DelSig.c ****         {
1637:Generated_Source\PSoC5/ADC_DelSig.c ****             case ADC_DelSig_IR_VNEG_VREF_DIFF:
1638:Generated_Source\PSoC5/ADC_DelSig.c ****             case ADC_DelSig_IR_VSSA_TO_2VREF:
1639:Generated_Source\PSoC5/ADC_DelSig.c ****                 /* Normalize the flash Value */
1640:Generated_Source\PSoC5/ADC_DelSig.c ****                 if(resolution > 15u)
 2117              		.loc 1 1640 0
 2118 0068 BB79     		ldrb	r3, [r7, #6]	@ zero_extendqisi2
 2119 006a 0F2B     		cmp	r3, #15
 2120 006c 04D9     		bls	.L119
1641:Generated_Source\PSoC5/ADC_DelSig.c ****                 {
ARM GAS  C:\Users\rcaravac\AppData\Local\Temp\ccauAhrg.s 			page 67


1642:Generated_Source\PSoC5/ADC_DelSig.c ****                     flash = ADC_DelSig_DEC_TRIM_VREF_DIFF_16_20;
 2121              		.loc 1 1642 0
 2122 006e 374B     		ldr	r3, .L131
 2123 0070 1B78     		ldrb	r3, [r3]
 2124 0072 DBB2     		uxtb	r3, r3
 2125 0074 FB75     		strb	r3, [r7, #23]
1643:Generated_Source\PSoC5/ADC_DelSig.c ****                 }
1644:Generated_Source\PSoC5/ADC_DelSig.c ****                 else
1645:Generated_Source\PSoC5/ADC_DelSig.c ****                 {
1646:Generated_Source\PSoC5/ADC_DelSig.c ****                     flash = ADC_DelSig_DEC_TRIM_VREF_DIFF_8_15;
1647:Generated_Source\PSoC5/ADC_DelSig.c ****                 }
1648:Generated_Source\PSoC5/ADC_DelSig.c ****                 break;
 2126              		.loc 1 1648 0
 2127 0076 2EE0     		b	.L121
 2128              	.L119:
1646:Generated_Source\PSoC5/ADC_DelSig.c ****                 }
 2129              		.loc 1 1646 0
 2130 0078 354B     		ldr	r3, .L131+4
 2131 007a 1B78     		ldrb	r3, [r3]
 2132 007c DBB2     		uxtb	r3, r3
 2133 007e FB75     		strb	r3, [r7, #23]
 2134              		.loc 1 1648 0
 2135 0080 29E0     		b	.L121
 2136              	.L116:
1649:Generated_Source\PSoC5/ADC_DelSig.c **** 
1650:Generated_Source\PSoC5/ADC_DelSig.c ****             case ADC_DelSig_IR_VNEG_VREF_2_DIFF:
1651:Generated_Source\PSoC5/ADC_DelSig.c ****                 /* Normalize the flash Value */
1652:Generated_Source\PSoC5/ADC_DelSig.c ****                 if(resolution > 15u)
 2137              		.loc 1 1652 0
 2138 0082 BB79     		ldrb	r3, [r7, #6]	@ zero_extendqisi2
 2139 0084 0F2B     		cmp	r3, #15
 2140 0086 04D9     		bls	.L122
1653:Generated_Source\PSoC5/ADC_DelSig.c ****                 {
1654:Generated_Source\PSoC5/ADC_DelSig.c ****                     flash = ADC_DelSig_DEC_TRIM_VREF_2_DIFF_16_20;
 2141              		.loc 1 1654 0
 2142 0088 324B     		ldr	r3, .L131+8
 2143 008a 1B78     		ldrb	r3, [r3]
 2144 008c DBB2     		uxtb	r3, r3
 2145 008e FB75     		strb	r3, [r7, #23]
1655:Generated_Source\PSoC5/ADC_DelSig.c ****                 }
1656:Generated_Source\PSoC5/ADC_DelSig.c ****                 else
1657:Generated_Source\PSoC5/ADC_DelSig.c ****                 {
1658:Generated_Source\PSoC5/ADC_DelSig.c ****                     flash = ADC_DelSig_DEC_TRIM_VREF_2_DIFF_8_15;
1659:Generated_Source\PSoC5/ADC_DelSig.c ****                 }
1660:Generated_Source\PSoC5/ADC_DelSig.c ****                 break;
 2146              		.loc 1 1660 0
 2147 0090 21E0     		b	.L121
 2148              	.L122:
1658:Generated_Source\PSoC5/ADC_DelSig.c ****                 }
 2149              		.loc 1 1658 0
 2150 0092 314B     		ldr	r3, .L131+12
 2151 0094 1B78     		ldrb	r3, [r3]
 2152 0096 DBB2     		uxtb	r3, r3
 2153 0098 FB75     		strb	r3, [r7, #23]
 2154              		.loc 1 1660 0
 2155 009a 1CE0     		b	.L121
 2156              	.L117:
ARM GAS  C:\Users\rcaravac\AppData\Local\Temp\ccauAhrg.s 			page 68


1661:Generated_Source\PSoC5/ADC_DelSig.c **** 
1662:Generated_Source\PSoC5/ADC_DelSig.c ****             case ADC_DelSig_IR_VNEG_VREF_4_DIFF:
1663:Generated_Source\PSoC5/ADC_DelSig.c ****                 /* Normalize the flash Value */
1664:Generated_Source\PSoC5/ADC_DelSig.c ****                 if(resolution > 15u)
 2157              		.loc 1 1664 0
 2158 009c BB79     		ldrb	r3, [r7, #6]	@ zero_extendqisi2
 2159 009e 0F2B     		cmp	r3, #15
 2160 00a0 04D9     		bls	.L124
1665:Generated_Source\PSoC5/ADC_DelSig.c ****                 {
1666:Generated_Source\PSoC5/ADC_DelSig.c ****                     flash = ADC_DelSig_DEC_TRIM_VREF_4_DIFF_16_20;
 2161              		.loc 1 1666 0
 2162 00a2 2E4B     		ldr	r3, .L131+16
 2163 00a4 1B78     		ldrb	r3, [r3]
 2164 00a6 DBB2     		uxtb	r3, r3
 2165 00a8 FB75     		strb	r3, [r7, #23]
1667:Generated_Source\PSoC5/ADC_DelSig.c ****                 }
1668:Generated_Source\PSoC5/ADC_DelSig.c ****                 else
1669:Generated_Source\PSoC5/ADC_DelSig.c ****                 {
1670:Generated_Source\PSoC5/ADC_DelSig.c ****                     flash = ADC_DelSig_DEC_TRIM_VREF_4_DIFF_8_15;
1671:Generated_Source\PSoC5/ADC_DelSig.c ****                 }
1672:Generated_Source\PSoC5/ADC_DelSig.c ****                 break;
 2166              		.loc 1 1672 0
 2167 00aa 14E0     		b	.L121
 2168              	.L124:
1670:Generated_Source\PSoC5/ADC_DelSig.c ****                 }
 2169              		.loc 1 1670 0
 2170 00ac 2C4B     		ldr	r3, .L131+20
 2171 00ae 1B78     		ldrb	r3, [r3]
 2172 00b0 DBB2     		uxtb	r3, r3
 2173 00b2 FB75     		strb	r3, [r7, #23]
 2174              		.loc 1 1672 0
 2175 00b4 0FE0     		b	.L121
 2176              	.L118:
1673:Generated_Source\PSoC5/ADC_DelSig.c **** 
1674:Generated_Source\PSoC5/ADC_DelSig.c ****             case ADC_DelSig_IR_VNEG_VREF_16_DIFF:
1675:Generated_Source\PSoC5/ADC_DelSig.c ****                 /* Normalize the flash Value */
1676:Generated_Source\PSoC5/ADC_DelSig.c ****                 if(resolution > 15u)
 2177              		.loc 1 1676 0
 2178 00b6 BB79     		ldrb	r3, [r7, #6]	@ zero_extendqisi2
 2179 00b8 0F2B     		cmp	r3, #15
 2180 00ba 04D9     		bls	.L126
1677:Generated_Source\PSoC5/ADC_DelSig.c ****                 {
1678:Generated_Source\PSoC5/ADC_DelSig.c ****                     flash = ADC_DelSig_DEC_TRIM_VREF_16_DIFF_16_20;
 2181              		.loc 1 1678 0
 2182 00bc 294B     		ldr	r3, .L131+24
 2183 00be 1B78     		ldrb	r3, [r3]
 2184 00c0 DBB2     		uxtb	r3, r3
 2185 00c2 FB75     		strb	r3, [r7, #23]
1679:Generated_Source\PSoC5/ADC_DelSig.c ****                 }
1680:Generated_Source\PSoC5/ADC_DelSig.c ****                 else
1681:Generated_Source\PSoC5/ADC_DelSig.c ****                 {
1682:Generated_Source\PSoC5/ADC_DelSig.c ****                     flash = ADC_DelSig_DEC_TRIM_VREF_16_DIFF_8_15;
1683:Generated_Source\PSoC5/ADC_DelSig.c ****                 }
1684:Generated_Source\PSoC5/ADC_DelSig.c ****                 break;
 2186              		.loc 1 1684 0
 2187 00c4 07E0     		b	.L121
 2188              	.L126:
ARM GAS  C:\Users\rcaravac\AppData\Local\Temp\ccauAhrg.s 			page 69


1682:Generated_Source\PSoC5/ADC_DelSig.c ****                 }
 2189              		.loc 1 1682 0
 2190 00c6 284B     		ldr	r3, .L131+28
 2191 00c8 1B78     		ldrb	r3, [r3]
 2192 00ca DBB2     		uxtb	r3, r3
 2193 00cc FB75     		strb	r3, [r7, #23]
 2194              		.loc 1 1684 0
 2195 00ce 02E0     		b	.L121
 2196              	.L113:
1685:Generated_Source\PSoC5/ADC_DelSig.c **** 
1686:Generated_Source\PSoC5/ADC_DelSig.c ****             default:
1687:Generated_Source\PSoC5/ADC_DelSig.c ****                 flash = 0;
 2197              		.loc 1 1687 0
 2198 00d0 0023     		movs	r3, #0
 2199 00d2 FB75     		strb	r3, [r7, #23]
1688:Generated_Source\PSoC5/ADC_DelSig.c ****                 break;
 2200              		.loc 1 1688 0
 2201 00d4 00BF     		nop
 2202              	.L121:
1689:Generated_Source\PSoC5/ADC_DelSig.c ****         }
1690:Generated_Source\PSoC5/ADC_DelSig.c **** 
1691:Generated_Source\PSoC5/ADC_DelSig.c ****         /* Add two values */
1692:Generated_Source\PSoC5/ADC_DelSig.c **** 		normalised = (int32)idealDecGain + ((int32)flash * 32);
 2203              		.loc 1 1692 0
 2204 00d6 BA88     		ldrh	r2, [r7, #4]
 2205 00d8 97F91730 		ldrsb	r3, [r7, #23]
 2206 00dc 5B01     		lsls	r3, r3, #5
 2207 00de 1344     		add	r3, r3, r2
 2208 00e0 3B61     		str	r3, [r7, #16]
1693:Generated_Source\PSoC5/ADC_DelSig.c ****         gcorTmp = (uint32)normalised * (uint32)idealOddDecGain;
 2209              		.loc 1 1693 0
 2210 00e2 7B88     		ldrh	r3, [r7, #2]
 2211 00e4 3A69     		ldr	r2, [r7, #16]
 2212 00e6 02FB03F3 		mul	r3, r2, r3
 2213 00ea FB60     		str	r3, [r7, #12]
1694:Generated_Source\PSoC5/ADC_DelSig.c ****         gcorValue = (uint16)(gcorTmp / ADC_DelSig_IDEAL_GAIN_CONST);
 2214              		.loc 1 1694 0
 2215 00ec FB68     		ldr	r3, [r7, #12]
 2216 00ee DB0B     		lsrs	r3, r3, #15
 2217 00f0 BB82     		strh	r3, [r7, #20]	@ movhi
1695:Generated_Source\PSoC5/ADC_DelSig.c **** 
1696:Generated_Source\PSoC5/ADC_DelSig.c ****         if (resolution < (ADC_DelSig_MAX_GVAL - 1u))
 2218              		.loc 1 1696 0
 2219 00f2 BB79     		ldrb	r3, [r7, #6]	@ zero_extendqisi2
 2220 00f4 0D2B     		cmp	r3, #13
 2221 00f6 12D8     		bhi	.L128
1697:Generated_Source\PSoC5/ADC_DelSig.c ****         {
1698:Generated_Source\PSoC5/ADC_DelSig.c ****             gcorValue = (gcorValue >> (ADC_DelSig_MAX_GVAL - (resolution + 1u)));
 2222              		.loc 1 1698 0
 2223 00f8 BA8A     		ldrh	r2, [r7, #20]
 2224 00fa BB79     		ldrb	r3, [r7, #6]	@ zero_extendqisi2
 2225 00fc C3F10E03 		rsb	r3, r3, #14
 2226 0100 42FA03F3 		asr	r3, r2, r3
 2227 0104 BB82     		strh	r3, [r7, #20]	@ movhi
1699:Generated_Source\PSoC5/ADC_DelSig.c ****             ADC_DelSig_gcor[config - 1u].gval = (resolution + 1u);
 2228              		.loc 1 1699 0
 2229 0106 97F82830 		ldrb	r3, [r7, #40]	@ zero_extendqisi2
ARM GAS  C:\Users\rcaravac\AppData\Local\Temp\ccauAhrg.s 			page 70


 2230 010a 013B     		subs	r3, r3, #1
 2231 010c BA79     		ldrb	r2, [r7, #6]
 2232 010e 0132     		adds	r2, r2, #1
 2233 0110 D1B2     		uxtb	r1, r2
 2234 0112 164A     		ldr	r2, .L131+32
 2235 0114 9B00     		lsls	r3, r3, #2
 2236 0116 1344     		add	r3, r3, r2
 2237 0118 0A46     		mov	r2, r1
 2238 011a 9A70     		strb	r2, [r3, #2]
 2239 011c 07E0     		b	.L129
 2240              	.L128:
1700:Generated_Source\PSoC5/ADC_DelSig.c ****         }
1701:Generated_Source\PSoC5/ADC_DelSig.c ****         else
1702:Generated_Source\PSoC5/ADC_DelSig.c ****         {
1703:Generated_Source\PSoC5/ADC_DelSig.c ****             /* Use all 16 bits */
1704:Generated_Source\PSoC5/ADC_DelSig.c ****             ADC_DelSig_gcor[config - 1u].gval = ADC_DelSig_MAX_GVAL;
 2241              		.loc 1 1704 0
 2242 011e 97F82830 		ldrb	r3, [r7, #40]	@ zero_extendqisi2
 2243 0122 013B     		subs	r3, r3, #1
 2244 0124 114A     		ldr	r2, .L131+32
 2245 0126 9B00     		lsls	r3, r3, #2
 2246 0128 1344     		add	r3, r3, r2
 2247 012a 0F22     		movs	r2, #15
 2248 012c 9A70     		strb	r2, [r3, #2]
 2249              	.L129:
1705:Generated_Source\PSoC5/ADC_DelSig.c ****         }
1706:Generated_Source\PSoC5/ADC_DelSig.c **** 
1707:Generated_Source\PSoC5/ADC_DelSig.c ****         /* Save the gain correction register value */
1708:Generated_Source\PSoC5/ADC_DelSig.c ****         ADC_DelSig_gcor[config - 1u].gcor = gcorValue;
 2250              		.loc 1 1708 0
 2251 012e 97F82830 		ldrb	r3, [r7, #40]	@ zero_extendqisi2
 2252 0132 013B     		subs	r3, r3, #1
 2253 0134 0D49     		ldr	r1, .L131+32
 2254 0136 BA8A     		ldrh	r2, [r7, #20]	@ movhi
 2255 0138 21F82320 		strh	r2, [r1, r3, lsl #2]	@ movhi
 2256 013c 02E0     		b	.L130
 2257              	.L112:
1709:Generated_Source\PSoC5/ADC_DelSig.c ****     }
1710:Generated_Source\PSoC5/ADC_DelSig.c ****     else
1711:Generated_Source\PSoC5/ADC_DelSig.c ****     {
1712:Generated_Source\PSoC5/ADC_DelSig.c ****         /* Halt CPU in debug mode if config is out of valid range */
1713:Generated_Source\PSoC5/ADC_DelSig.c ****         CYASSERT(0u != 0u);
 2258              		.loc 1 1713 0 discriminator 1
 2259 013e 0020     		movs	r0, #0
 2260 0140 FFF7FEFF 		bl	CyHalt
 2261              	.L130:
1714:Generated_Source\PSoC5/ADC_DelSig.c ****     }
1715:Generated_Source\PSoC5/ADC_DelSig.c **** }
 2262              		.loc 1 1715 0
 2263 0144 00BF     		nop
 2264 0146 1C37     		adds	r7, r7, #28
 2265              		.cfi_def_cfa_offset 12
 2266 0148 BD46     		mov	sp, r7
 2267              		.cfi_def_cfa_register 13
 2268              		@ sp needed
 2269 014a 90BD     		pop	{r4, r7, pc}
 2270              	.L132:
ARM GAS  C:\Users\rcaravac\AppData\Local\Temp\ccauAhrg.s 			page 71


 2271              		.align	2
 2272              	.L131:
 2273 014c 18010049 		.word	1224737048
 2274 0150 1C010049 		.word	1224737052
 2275 0154 19010049 		.word	1224737049
 2276 0158 1D010049 		.word	1224737053
 2277 015c 1A010049 		.word	1224737050
 2278 0160 1E010049 		.word	1224737054
 2279 0164 1B010049 		.word	1224737051
 2280 0168 1F010049 		.word	1224737055
 2281 016c 08000000 		.word	ADC_DelSig_gcor
 2282              		.cfi_endproc
 2283              	.LFE21:
 2284              		.size	ADC_DelSig_GainCompensation, .-ADC_DelSig_GainCompensation
 2285              		.section	.text.ADC_DelSig_SetDSMRef0Reg,"ax",%progbits
 2286              		.align	2
 2287              		.thumb
 2288              		.thumb_func
 2289              		.type	ADC_DelSig_SetDSMRef0Reg, %function
 2290              	ADC_DelSig_SetDSMRef0Reg:
 2291              	.LFB22:
1716:Generated_Source\PSoC5/ADC_DelSig.c **** 
1717:Generated_Source\PSoC5/ADC_DelSig.c **** 
1718:Generated_Source\PSoC5/ADC_DelSig.c **** /******************************************************************************
1719:Generated_Source\PSoC5/ADC_DelSig.c **** * Function Name: ADC_DelSig_SetDSMRef0Reg(uint8)
1720:Generated_Source\PSoC5/ADC_DelSig.c **** ******************************************************************************
1721:Generated_Source\PSoC5/ADC_DelSig.c **** *
1722:Generated_Source\PSoC5/ADC_DelSig.c **** * Summary:
1723:Generated_Source\PSoC5/ADC_DelSig.c **** *  This API sets the DSM_REF0 register. This is written for internal use.
1724:Generated_Source\PSoC5/ADC_DelSig.c **** *
1725:Generated_Source\PSoC5/ADC_DelSig.c **** * Parameters:
1726:Generated_Source\PSoC5/ADC_DelSig.c **** *  value:  Value to be written to DSM_REF0 register.
1727:Generated_Source\PSoC5/ADC_DelSig.c **** *
1728:Generated_Source\PSoC5/ADC_DelSig.c **** * Return:
1729:Generated_Source\PSoC5/ADC_DelSig.c **** *  None
1730:Generated_Source\PSoC5/ADC_DelSig.c **** *
1731:Generated_Source\PSoC5/ADC_DelSig.c **** ******************************************************************************/
1732:Generated_Source\PSoC5/ADC_DelSig.c **** static void ADC_DelSig_SetDSMRef0Reg(uint8 value) 
1733:Generated_Source\PSoC5/ADC_DelSig.c **** {
 2292              		.loc 1 1733 0
 2293              		.cfi_startproc
 2294              		@ args = 0, pretend = 0, frame = 16
 2295              		@ frame_needed = 1, uses_anonymous_args = 0
 2296 0000 80B5     		push	{r7, lr}
 2297              		.cfi_def_cfa_offset 8
 2298              		.cfi_offset 7, -8
 2299              		.cfi_offset 14, -4
 2300 0002 84B0     		sub	sp, sp, #16
 2301              		.cfi_def_cfa_offset 24
 2302 0004 00AF     		add	r7, sp, #0
 2303              		.cfi_def_cfa_register 7
 2304 0006 0346     		mov	r3, r0
 2305 0008 FB71     		strb	r3, [r7, #7]
1734:Generated_Source\PSoC5/ADC_DelSig.c ****     uint8 enableInterrupts;
1735:Generated_Source\PSoC5/ADC_DelSig.c ****     enableInterrupts = CyEnterCriticalSection();
 2306              		.loc 1 1735 0
 2307 000a FFF7FEFF 		bl	CyEnterCriticalSection
ARM GAS  C:\Users\rcaravac\AppData\Local\Temp\ccauAhrg.s 			page 72


 2308 000e 0346     		mov	r3, r0
 2309 0010 FB73     		strb	r3, [r7, #15]
1736:Generated_Source\PSoC5/ADC_DelSig.c **** 
1737:Generated_Source\PSoC5/ADC_DelSig.c ****     /* Disable PRES, Enable power to VCMBUF0, REFBUF0 and REFBUF1, enable PRES */
1738:Generated_Source\PSoC5/ADC_DelSig.c ****     ADC_DelSig_RESET_CR4_REG |= (ADC_DelSig_IGNORE_PRESA1 | ADC_DelSig_IGNORE_PRESD1);
 2310              		.loc 1 1738 0
 2311 0012 174A     		ldr	r2, .L134
 2312 0014 164B     		ldr	r3, .L134
 2313 0016 1B78     		ldrb	r3, [r3]
 2314 0018 DBB2     		uxtb	r3, r3
 2315 001a 43F00303 		orr	r3, r3, #3
 2316 001e DBB2     		uxtb	r3, r3
 2317 0020 1370     		strb	r3, [r2]
1739:Generated_Source\PSoC5/ADC_DelSig.c ****     ADC_DelSig_RESET_CR5_REG |= (ADC_DelSig_IGNORE_PRESA2 | ADC_DelSig_IGNORE_PRESD2);
 2318              		.loc 1 1739 0
 2319 0022 144A     		ldr	r2, .L134+4
 2320 0024 134B     		ldr	r3, .L134+4
 2321 0026 1B78     		ldrb	r3, [r3]
 2322 0028 DBB2     		uxtb	r3, r3
 2323 002a 43F00303 		orr	r3, r3, #3
 2324 002e DBB2     		uxtb	r3, r3
 2325 0030 1370     		strb	r3, [r2]
1740:Generated_Source\PSoC5/ADC_DelSig.c ****     ADC_DelSig_DSM_REF0_REG = value;
 2326              		.loc 1 1740 0
 2327 0032 114A     		ldr	r2, .L134+8
 2328 0034 FB79     		ldrb	r3, [r7, #7]
 2329 0036 1370     		strb	r3, [r2]
1741:Generated_Source\PSoC5/ADC_DelSig.c **** 
1742:Generated_Source\PSoC5/ADC_DelSig.c ****     /* Wait for 3 microseconds */
1743:Generated_Source\PSoC5/ADC_DelSig.c ****     CyDelayUs(ADC_DelSig_PRES_DELAY_TIME);
 2330              		.loc 1 1743 0
 2331 0038 0320     		movs	r0, #3
 2332 003a FFF7FEFF 		bl	CyDelayUs
1744:Generated_Source\PSoC5/ADC_DelSig.c ****     /* Enable the press circuit */
1745:Generated_Source\PSoC5/ADC_DelSig.c ****     ADC_DelSig_RESET_CR4_REG &= (uint8)~(ADC_DelSig_IGNORE_PRESA1 | ADC_DelSig_IGNORE_PRESD1);
 2333              		.loc 1 1745 0
 2334 003e 0C4A     		ldr	r2, .L134
 2335 0040 0B4B     		ldr	r3, .L134
 2336 0042 1B78     		ldrb	r3, [r3]
 2337 0044 DBB2     		uxtb	r3, r3
 2338 0046 23F00303 		bic	r3, r3, #3
 2339 004a DBB2     		uxtb	r3, r3
 2340 004c 1370     		strb	r3, [r2]
1746:Generated_Source\PSoC5/ADC_DelSig.c ****     ADC_DelSig_RESET_CR5_REG &= (uint8)~(ADC_DelSig_IGNORE_PRESA2 | ADC_DelSig_IGNORE_PRESD2);
 2341              		.loc 1 1746 0
 2342 004e 094A     		ldr	r2, .L134+4
 2343 0050 084B     		ldr	r3, .L134+4
 2344 0052 1B78     		ldrb	r3, [r3]
 2345 0054 DBB2     		uxtb	r3, r3
 2346 0056 23F00303 		bic	r3, r3, #3
 2347 005a DBB2     		uxtb	r3, r3
 2348 005c 1370     		strb	r3, [r2]
1747:Generated_Source\PSoC5/ADC_DelSig.c **** 
1748:Generated_Source\PSoC5/ADC_DelSig.c ****     CyExitCriticalSection(enableInterrupts);
 2349              		.loc 1 1748 0
 2350 005e FB7B     		ldrb	r3, [r7, #15]	@ zero_extendqisi2
 2351 0060 1846     		mov	r0, r3
ARM GAS  C:\Users\rcaravac\AppData\Local\Temp\ccauAhrg.s 			page 73


 2352 0062 FFF7FEFF 		bl	CyExitCriticalSection
1749:Generated_Source\PSoC5/ADC_DelSig.c **** }
 2353              		.loc 1 1749 0
 2354 0066 00BF     		nop
 2355 0068 1037     		adds	r7, r7, #16
 2356              		.cfi_def_cfa_offset 8
 2357 006a BD46     		mov	sp, r7
 2358              		.cfi_def_cfa_register 13
 2359              		@ sp needed
 2360 006c 80BD     		pop	{r7, pc}
 2361              	.L135:
 2362 006e 00BF     		.align	2
 2363              	.L134:
 2364 0070 F8460040 		.word	1073759992
 2365 0074 F9460040 		.word	1073759993
 2366 0078 92580040 		.word	1073764498
 2367              		.cfi_endproc
 2368              	.LFE22:
 2369              		.size	ADC_DelSig_SetDSMRef0Reg, .-ADC_DelSig_SetDSMRef0Reg
 2370              		.section	.text.ADC_DelSig_Read8,"ax",%progbits
 2371              		.align	2
 2372              		.global	ADC_DelSig_Read8
 2373              		.thumb
 2374              		.thumb_func
 2375              		.type	ADC_DelSig_Read8, %function
 2376              	ADC_DelSig_Read8:
 2377              	.LFB23:
1750:Generated_Source\PSoC5/ADC_DelSig.c **** 
1751:Generated_Source\PSoC5/ADC_DelSig.c **** 
1752:Generated_Source\PSoC5/ADC_DelSig.c **** /*******************************************************************************
1753:Generated_Source\PSoC5/ADC_DelSig.c **** * Function Name: ADC_DelSig_Read8
1754:Generated_Source\PSoC5/ADC_DelSig.c **** ********************************************************************************
1755:Generated_Source\PSoC5/ADC_DelSig.c **** *
1756:Generated_Source\PSoC5/ADC_DelSig.c **** * Summary:
1757:Generated_Source\PSoC5/ADC_DelSig.c **** *  This function simplifies getting results from the ADC when only a
1758:Generated_Source\PSoC5/ADC_DelSig.c **** *  single reading is required. When called, it will start ADC
1759:Generated_Source\PSoC5/ADC_DelSig.c **** *  conversions, wait for the conversion to be complete, stop ADC
1760:Generated_Source\PSoC5/ADC_DelSig.c **** *  conversion and return the result. This is a blocking function and will
1761:Generated_Source\PSoC5/ADC_DelSig.c **** *  not return until the result is ready.
1762:Generated_Source\PSoC5/ADC_DelSig.c **** *
1763:Generated_Source\PSoC5/ADC_DelSig.c **** * Parameters:
1764:Generated_Source\PSoC5/ADC_DelSig.c **** *  None
1765:Generated_Source\PSoC5/ADC_DelSig.c **** *
1766:Generated_Source\PSoC5/ADC_DelSig.c **** * Return:
1767:Generated_Source\PSoC5/ADC_DelSig.c **** *  int8:  ADC result.
1768:Generated_Source\PSoC5/ADC_DelSig.c **** *
1769:Generated_Source\PSoC5/ADC_DelSig.c **** *******************************************************************************/
1770:Generated_Source\PSoC5/ADC_DelSig.c **** int8 ADC_DelSig_Read8(void) 
1771:Generated_Source\PSoC5/ADC_DelSig.c **** {
 2378              		.loc 1 1771 0
 2379              		.cfi_startproc
 2380              		@ args = 0, pretend = 0, frame = 8
 2381              		@ frame_needed = 1, uses_anonymous_args = 0
 2382 0000 80B5     		push	{r7, lr}
 2383              		.cfi_def_cfa_offset 8
 2384              		.cfi_offset 7, -8
 2385              		.cfi_offset 14, -4
ARM GAS  C:\Users\rcaravac\AppData\Local\Temp\ccauAhrg.s 			page 74


 2386 0002 82B0     		sub	sp, sp, #8
 2387              		.cfi_def_cfa_offset 16
 2388 0004 00AF     		add	r7, sp, #0
 2389              		.cfi_def_cfa_register 7
1772:Generated_Source\PSoC5/ADC_DelSig.c ****     int8 result;
1773:Generated_Source\PSoC5/ADC_DelSig.c **** 
1774:Generated_Source\PSoC5/ADC_DelSig.c ****     /* Clear pending conversion done status */
1775:Generated_Source\PSoC5/ADC_DelSig.c ****     ADC_DelSig_DEC_SR_REG |= ADC_DelSig_DEC_INTR_CLEAR;
 2390              		.loc 1 1775 0
 2391 0006 0C4A     		ldr	r2, .L138
 2392 0008 0B4B     		ldr	r3, .L138
 2393 000a 1B78     		ldrb	r3, [r3]
 2394 000c DBB2     		uxtb	r3, r3
 2395 000e 43F00403 		orr	r3, r3, #4
 2396 0012 DBB2     		uxtb	r3, r3
 2397 0014 1370     		strb	r3, [r2]
1776:Generated_Source\PSoC5/ADC_DelSig.c ****     ADC_DelSig_StartConvert();
 2398              		.loc 1 1776 0
 2399 0016 FFF7FEFF 		bl	ADC_DelSig_StartConvert
1777:Generated_Source\PSoC5/ADC_DelSig.c ****     (void)ADC_DelSig_IsEndConversion(ADC_DelSig_WAIT_FOR_RESULT);
 2400              		.loc 1 1777 0
 2401 001a 0020     		movs	r0, #0
 2402 001c FFF7FEFF 		bl	ADC_DelSig_IsEndConversion
1778:Generated_Source\PSoC5/ADC_DelSig.c ****      result = ADC_DelSig_GetResult8();
 2403              		.loc 1 1778 0
 2404 0020 FFF7FEFF 		bl	ADC_DelSig_GetResult8
 2405 0024 0346     		mov	r3, r0
 2406 0026 FB71     		strb	r3, [r7, #7]
1779:Generated_Source\PSoC5/ADC_DelSig.c ****     ADC_DelSig_StopConvert();
 2407              		.loc 1 1779 0
 2408 0028 FFF7FEFF 		bl	ADC_DelSig_StopConvert
1780:Generated_Source\PSoC5/ADC_DelSig.c ****     
1781:Generated_Source\PSoC5/ADC_DelSig.c ****      return(result);
 2409              		.loc 1 1781 0
 2410 002c 97F90730 		ldrsb	r3, [r7, #7]
1782:Generated_Source\PSoC5/ADC_DelSig.c **** }
 2411              		.loc 1 1782 0
 2412 0030 1846     		mov	r0, r3
 2413 0032 0837     		adds	r7, r7, #8
 2414              		.cfi_def_cfa_offset 8
 2415 0034 BD46     		mov	sp, r7
 2416              		.cfi_def_cfa_register 13
 2417              		@ sp needed
 2418 0036 80BD     		pop	{r7, pc}
 2419              	.L139:
 2420              		.align	2
 2421              	.L138:
 2422 0038 014E0040 		.word	1073761793
 2423              		.cfi_endproc
 2424              	.LFE23:
 2425              		.size	ADC_DelSig_Read8, .-ADC_DelSig_Read8
 2426              		.section	.text.ADC_DelSig_Read16,"ax",%progbits
 2427              		.align	2
 2428              		.global	ADC_DelSig_Read16
 2429              		.thumb
 2430              		.thumb_func
 2431              		.type	ADC_DelSig_Read16, %function
ARM GAS  C:\Users\rcaravac\AppData\Local\Temp\ccauAhrg.s 			page 75


 2432              	ADC_DelSig_Read16:
 2433              	.LFB24:
1783:Generated_Source\PSoC5/ADC_DelSig.c **** 
1784:Generated_Source\PSoC5/ADC_DelSig.c **** 
1785:Generated_Source\PSoC5/ADC_DelSig.c **** /*******************************************************************************
1786:Generated_Source\PSoC5/ADC_DelSig.c **** * Function Name: ADC_DelSig_Read16
1787:Generated_Source\PSoC5/ADC_DelSig.c **** ********************************************************************************
1788:Generated_Source\PSoC5/ADC_DelSig.c **** *
1789:Generated_Source\PSoC5/ADC_DelSig.c **** * Summary:
1790:Generated_Source\PSoC5/ADC_DelSig.c **** *  This function simplifies getting results from the ADC when only a
1791:Generated_Source\PSoC5/ADC_DelSig.c **** *  single reading is required. When called, it will start ADC
1792:Generated_Source\PSoC5/ADC_DelSig.c **** *  conversions, wait for the conversion to be complete, stop ADC
1793:Generated_Source\PSoC5/ADC_DelSig.c **** *  conversion and return the result. This is a blocking function and will
1794:Generated_Source\PSoC5/ADC_DelSig.c **** *  not return until the result is ready.
1795:Generated_Source\PSoC5/ADC_DelSig.c **** *
1796:Generated_Source\PSoC5/ADC_DelSig.c **** * Parameters:
1797:Generated_Source\PSoC5/ADC_DelSig.c **** *   void
1798:Generated_Source\PSoC5/ADC_DelSig.c **** *
1799:Generated_Source\PSoC5/ADC_DelSig.c **** * Return:
1800:Generated_Source\PSoC5/ADC_DelSig.c **** *  int16:  ADC result.
1801:Generated_Source\PSoC5/ADC_DelSig.c **** *
