ARM GAS  C:\Users\rcaravac\AppData\Local\Temp\ccy3g4oq.s 			page 1


   1              		.syntax unified
   2              		.cpu cortex-m3
   3              		.fpu softvfp
   4              		.eabi_attribute 20, 1
   5              		.eabi_attribute 21, 1
   6              		.eabi_attribute 23, 3
   7              		.eabi_attribute 24, 1
   8              		.eabi_attribute 25, 1
   9              		.eabi_attribute 26, 1
  10              		.eabi_attribute 30, 6
  11              		.eabi_attribute 34, 1
  12              		.eabi_attribute 18, 4
  13              		.thumb
  14              		.syntax unified
  15              		.file	"cyfitter_cfg.c"
  16              		.text
  17              	.Ltext0:
  18              		.cfi_sections	.debug_frame
  19              		.section	.text.CYMEMZERO,"ax",%progbits
  20              		.align	2
  21              		.thumb
  22              		.thumb_func
  23              		.type	CYMEMZERO, %function
  24              	CYMEMZERO:
  25              	.LFB0:
  26              		.file 1 "Generated_Source\\PSoC5\\cyfitter_cfg.c"
   1:Generated_Source\PSoC5/cyfitter_cfg.c **** 
   2:Generated_Source\PSoC5/cyfitter_cfg.c **** /*******************************************************************************
   3:Generated_Source\PSoC5/cyfitter_cfg.c **** * File Name: cyfitter_cfg.c
   4:Generated_Source\PSoC5/cyfitter_cfg.c **** * 
   5:Generated_Source\PSoC5/cyfitter_cfg.c **** * PSoC Creator  4.2
   6:Generated_Source\PSoC5/cyfitter_cfg.c **** *
   7:Generated_Source\PSoC5/cyfitter_cfg.c **** * Description:
   8:Generated_Source\PSoC5/cyfitter_cfg.c **** * This file contains device initialization code.
   9:Generated_Source\PSoC5/cyfitter_cfg.c **** * Except for the user defined sections in CyClockStartupError(), this file should not be modified.
  10:Generated_Source\PSoC5/cyfitter_cfg.c **** * This file is automatically generated by PSoC Creator.
  11:Generated_Source\PSoC5/cyfitter_cfg.c **** *
  12:Generated_Source\PSoC5/cyfitter_cfg.c **** ********************************************************************************
  13:Generated_Source\PSoC5/cyfitter_cfg.c **** * Copyright (c) 2007-2018 Cypress Semiconductor.  All rights reserved.
  14:Generated_Source\PSoC5/cyfitter_cfg.c **** * You may use this file only in accordance with the license, terms, conditions, 
  15:Generated_Source\PSoC5/cyfitter_cfg.c **** * disclaimers, and limitations in the end user license agreement accompanying 
  16:Generated_Source\PSoC5/cyfitter_cfg.c **** * the software package with which this file was provided.
  17:Generated_Source\PSoC5/cyfitter_cfg.c **** ********************************************************************************/
  18:Generated_Source\PSoC5/cyfitter_cfg.c **** 
  19:Generated_Source\PSoC5/cyfitter_cfg.c **** #include <string.h>
  20:Generated_Source\PSoC5/cyfitter_cfg.c **** #include "cytypes.h"
  21:Generated_Source\PSoC5/cyfitter_cfg.c **** #include "cydevice_trm.h"
  22:Generated_Source\PSoC5/cyfitter_cfg.c **** #include "cyfitter.h"
  23:Generated_Source\PSoC5/cyfitter_cfg.c **** #include "CyLib.h"
  24:Generated_Source\PSoC5/cyfitter_cfg.c **** #include "cyfitter_cfg.h"
  25:Generated_Source\PSoC5/cyfitter_cfg.c **** #include "cyapicallbacks.h"
  26:Generated_Source\PSoC5/cyfitter_cfg.c **** 
  27:Generated_Source\PSoC5/cyfitter_cfg.c **** #define CY_NEED_CYCLOCKSTARTUPERROR 1
  28:Generated_Source\PSoC5/cyfitter_cfg.c **** 
  29:Generated_Source\PSoC5/cyfitter_cfg.c **** 
  30:Generated_Source\PSoC5/cyfitter_cfg.c **** #if defined(__GNUC__) || defined(__ARMCC_VERSION)
  31:Generated_Source\PSoC5/cyfitter_cfg.c ****     #define CYPACKED 
ARM GAS  C:\Users\rcaravac\AppData\Local\Temp\ccy3g4oq.s 			page 2


  32:Generated_Source\PSoC5/cyfitter_cfg.c ****     #define CYPACKED_ATTR __attribute__ ((packed))
  33:Generated_Source\PSoC5/cyfitter_cfg.c ****     #define CYALIGNED __attribute__ ((aligned))
  34:Generated_Source\PSoC5/cyfitter_cfg.c ****     #define CY_CFG_UNUSED __attribute__ ((unused))
  35:Generated_Source\PSoC5/cyfitter_cfg.c ****     #ifndef CY_CFG_SECTION
  36:Generated_Source\PSoC5/cyfitter_cfg.c ****         #define CY_CFG_SECTION __attribute__ ((section(".psocinit")))
  37:Generated_Source\PSoC5/cyfitter_cfg.c ****     #endif
  38:Generated_Source\PSoC5/cyfitter_cfg.c ****     
  39:Generated_Source\PSoC5/cyfitter_cfg.c ****     #if CYDEV_CONFIGURATION_DMA
  40:Generated_Source\PSoC5/cyfitter_cfg.c ****         #if (defined(__ARMCC_VERSION) || defined(__GNUC__))
  41:Generated_Source\PSoC5/cyfitter_cfg.c ****             #ifndef DMAINITSEC
  42:Generated_Source\PSoC5/cyfitter_cfg.c ****                 #define DMAINITSEC __attribute__ ((section(".dma_init")))
  43:Generated_Source\PSoC5/cyfitter_cfg.c ****             #endif
  44:Generated_Source\PSoC5/cyfitter_cfg.c ****         #elif defined(__ICCARM__)
  45:Generated_Source\PSoC5/cyfitter_cfg.c ****             #define DMAINITSEC _Pragma("location=\".dma_init\"")
  46:Generated_Source\PSoC5/cyfitter_cfg.c ****         #endif
  47:Generated_Source\PSoC5/cyfitter_cfg.c ****     #else
  48:Generated_Source\PSoC5/cyfitter_cfg.c ****         #define DMAINITSEC
  49:Generated_Source\PSoC5/cyfitter_cfg.c ****     #endif
  50:Generated_Source\PSoC5/cyfitter_cfg.c **** 
  51:Generated_Source\PSoC5/cyfitter_cfg.c ****     #if defined(__ARMCC_VERSION)
  52:Generated_Source\PSoC5/cyfitter_cfg.c ****         #define CY_CFG_MEMORY_BARRIER() __memory_changed()
  53:Generated_Source\PSoC5/cyfitter_cfg.c ****     #else
  54:Generated_Source\PSoC5/cyfitter_cfg.c ****         #define CY_CFG_MEMORY_BARRIER() __sync_synchronize()
  55:Generated_Source\PSoC5/cyfitter_cfg.c ****     #endif
  56:Generated_Source\PSoC5/cyfitter_cfg.c ****     
  57:Generated_Source\PSoC5/cyfitter_cfg.c **** #elif defined(__ICCARM__)
  58:Generated_Source\PSoC5/cyfitter_cfg.c ****     #include <intrinsics.h>
  59:Generated_Source\PSoC5/cyfitter_cfg.c **** 
  60:Generated_Source\PSoC5/cyfitter_cfg.c ****     #define CYPACKED __packed
  61:Generated_Source\PSoC5/cyfitter_cfg.c ****     #define CYPACKED_ATTR 
  62:Generated_Source\PSoC5/cyfitter_cfg.c ****     #define CYALIGNED _Pragma("data_alignment=4")
  63:Generated_Source\PSoC5/cyfitter_cfg.c ****     #define CY_CFG_UNUSED _Pragma("diag_suppress=Pe177")
  64:Generated_Source\PSoC5/cyfitter_cfg.c ****     #define CY_CFG_SECTION _Pragma("location=\".psocinit\"")
  65:Generated_Source\PSoC5/cyfitter_cfg.c ****     
  66:Generated_Source\PSoC5/cyfitter_cfg.c ****     #if CYDEV_CONFIGURATION_DMA
  67:Generated_Source\PSoC5/cyfitter_cfg.c ****         #if (defined(__ARMCC_VERSION) || defined(__GNUC__))
  68:Generated_Source\PSoC5/cyfitter_cfg.c ****             #ifndef DMAINITSEC
  69:Generated_Source\PSoC5/cyfitter_cfg.c ****                 #define DMAINITSEC __attribute__ ((section(".dma_init")))
  70:Generated_Source\PSoC5/cyfitter_cfg.c ****             #endif
  71:Generated_Source\PSoC5/cyfitter_cfg.c ****         #elif defined(__ICCARM__)
  72:Generated_Source\PSoC5/cyfitter_cfg.c ****             #define DMAINITSEC _Pragma("location=\".dma_init\"")
  73:Generated_Source\PSoC5/cyfitter_cfg.c ****         #endif
  74:Generated_Source\PSoC5/cyfitter_cfg.c ****     #else
  75:Generated_Source\PSoC5/cyfitter_cfg.c ****         #define DMAINITSEC
  76:Generated_Source\PSoC5/cyfitter_cfg.c ****     #endif
  77:Generated_Source\PSoC5/cyfitter_cfg.c **** 
  78:Generated_Source\PSoC5/cyfitter_cfg.c ****     #define CY_CFG_MEMORY_BARRIER() __DMB()
  79:Generated_Source\PSoC5/cyfitter_cfg.c ****     
  80:Generated_Source\PSoC5/cyfitter_cfg.c **** #else
  81:Generated_Source\PSoC5/cyfitter_cfg.c ****     #error Unsupported toolchain
  82:Generated_Source\PSoC5/cyfitter_cfg.c **** #endif
  83:Generated_Source\PSoC5/cyfitter_cfg.c **** 
  84:Generated_Source\PSoC5/cyfitter_cfg.c **** #ifndef CYCODE
  85:Generated_Source\PSoC5/cyfitter_cfg.c ****     #define CYCODE
  86:Generated_Source\PSoC5/cyfitter_cfg.c **** #endif
  87:Generated_Source\PSoC5/cyfitter_cfg.c **** #ifndef CYDATA
  88:Generated_Source\PSoC5/cyfitter_cfg.c ****     #define CYDATA
ARM GAS  C:\Users\rcaravac\AppData\Local\Temp\ccy3g4oq.s 			page 3


  89:Generated_Source\PSoC5/cyfitter_cfg.c **** #endif
  90:Generated_Source\PSoC5/cyfitter_cfg.c **** #ifndef CYFAR
  91:Generated_Source\PSoC5/cyfitter_cfg.c ****     #define CYFAR
  92:Generated_Source\PSoC5/cyfitter_cfg.c **** #endif
  93:Generated_Source\PSoC5/cyfitter_cfg.c **** #ifndef CYXDATA
  94:Generated_Source\PSoC5/cyfitter_cfg.c ****     #define CYXDATA
  95:Generated_Source\PSoC5/cyfitter_cfg.c **** #endif
  96:Generated_Source\PSoC5/cyfitter_cfg.c **** 
  97:Generated_Source\PSoC5/cyfitter_cfg.c **** 
  98:Generated_Source\PSoC5/cyfitter_cfg.c **** CY_CFG_UNUSED
  99:Generated_Source\PSoC5/cyfitter_cfg.c **** static void CYMEMZERO(void *s, size_t n);
 100:Generated_Source\PSoC5/cyfitter_cfg.c **** CY_CFG_UNUSED
 101:Generated_Source\PSoC5/cyfitter_cfg.c **** static void CYMEMZERO(void *s, size_t n)
 102:Generated_Source\PSoC5/cyfitter_cfg.c **** {
  27              		.loc 1 102 0
  28              		.cfi_startproc
  29              		@ args = 0, pretend = 0, frame = 8
  30              		@ frame_needed = 1, uses_anonymous_args = 0
  31 0000 80B5     		push	{r7, lr}
  32              		.cfi_def_cfa_offset 8
  33              		.cfi_offset 7, -8
  34              		.cfi_offset 14, -4
  35 0002 82B0     		sub	sp, sp, #8
  36              		.cfi_def_cfa_offset 16
  37 0004 00AF     		add	r7, sp, #0
  38              		.cfi_def_cfa_register 7
  39 0006 7860     		str	r0, [r7, #4]
  40 0008 3960     		str	r1, [r7]
 103:Generated_Source\PSoC5/cyfitter_cfg.c **** 	(void)memset(s, 0, n);
  41              		.loc 1 103 0
  42 000a 3A68     		ldr	r2, [r7]
  43 000c 0021     		movs	r1, #0
  44 000e 7868     		ldr	r0, [r7, #4]
  45 0010 FFF7FEFF 		bl	memset
 104:Generated_Source\PSoC5/cyfitter_cfg.c **** }
  46              		.loc 1 104 0
  47 0014 00BF     		nop
  48 0016 0837     		adds	r7, r7, #8
  49              		.cfi_def_cfa_offset 8
  50 0018 BD46     		mov	sp, r7
  51              		.cfi_def_cfa_register 13
  52              		@ sp needed
  53 001a 80BD     		pop	{r7, pc}
  54              		.cfi_endproc
  55              	.LFE0:
  56              		.size	CYMEMZERO, .-CYMEMZERO
  57              		.section	.text.CYCONFIGCPY,"ax",%progbits
  58              		.align	2
  59              		.thumb
  60              		.thumb_func
  61              		.type	CYCONFIGCPY, %function
  62              	CYCONFIGCPY:
  63              	.LFB1:
 105:Generated_Source\PSoC5/cyfitter_cfg.c **** CY_CFG_UNUSED
 106:Generated_Source\PSoC5/cyfitter_cfg.c **** static void CYCONFIGCPY(void *dest, const void *src, size_t n);
 107:Generated_Source\PSoC5/cyfitter_cfg.c **** CY_CFG_UNUSED
 108:Generated_Source\PSoC5/cyfitter_cfg.c **** static void CYCONFIGCPY(void *dest, const void *src, size_t n)
ARM GAS  C:\Users\rcaravac\AppData\Local\Temp\ccy3g4oq.s 			page 4


 109:Generated_Source\PSoC5/cyfitter_cfg.c **** {
  64              		.loc 1 109 0
  65              		.cfi_startproc
  66              		@ args = 0, pretend = 0, frame = 16
  67              		@ frame_needed = 1, uses_anonymous_args = 0
  68 0000 80B5     		push	{r7, lr}
  69              		.cfi_def_cfa_offset 8
  70              		.cfi_offset 7, -8
  71              		.cfi_offset 14, -4
  72 0002 84B0     		sub	sp, sp, #16
  73              		.cfi_def_cfa_offset 24
  74 0004 00AF     		add	r7, sp, #0
  75              		.cfi_def_cfa_register 7
  76 0006 F860     		str	r0, [r7, #12]
  77 0008 B960     		str	r1, [r7, #8]
  78 000a 7A60     		str	r2, [r7, #4]
 110:Generated_Source\PSoC5/cyfitter_cfg.c **** 	(void)memcpy(dest, src, n);
  79              		.loc 1 110 0
  80 000c 7A68     		ldr	r2, [r7, #4]
  81 000e B968     		ldr	r1, [r7, #8]
  82 0010 F868     		ldr	r0, [r7, #12]
  83 0012 FFF7FEFF 		bl	memcpy
 111:Generated_Source\PSoC5/cyfitter_cfg.c **** }
  84              		.loc 1 111 0
  85 0016 00BF     		nop
  86 0018 1037     		adds	r7, r7, #16
  87              		.cfi_def_cfa_offset 8
  88 001a BD46     		mov	sp, r7
  89              		.cfi_def_cfa_register 13
  90              		@ sp needed
  91 001c 80BD     		pop	{r7, pc}
  92              		.cfi_endproc
  93              	.LFE1:
  94              		.size	CYCONFIGCPY, .-CYCONFIGCPY
  95 001e 00BF     		.section	.text.CYCONFIGCPYCODE,"ax",%progbits
  96              		.align	2
  97              		.thumb
  98              		.thumb_func
  99              		.type	CYCONFIGCPYCODE, %function
 100              	CYCONFIGCPYCODE:
 101              	.LFB2:
 112:Generated_Source\PSoC5/cyfitter_cfg.c **** CY_CFG_UNUSED
 113:Generated_Source\PSoC5/cyfitter_cfg.c **** static void CYCONFIGCPYCODE(void *dest, const void *src, size_t n);
 114:Generated_Source\PSoC5/cyfitter_cfg.c **** CY_CFG_UNUSED
 115:Generated_Source\PSoC5/cyfitter_cfg.c **** static void CYCONFIGCPYCODE(void *dest, const void *src, size_t n)
 116:Generated_Source\PSoC5/cyfitter_cfg.c **** {
 102              		.loc 1 116 0
 103              		.cfi_startproc
 104              		@ args = 0, pretend = 0, frame = 16
 105              		@ frame_needed = 1, uses_anonymous_args = 0
 106 0000 80B5     		push	{r7, lr}
 107              		.cfi_def_cfa_offset 8
 108              		.cfi_offset 7, -8
 109              		.cfi_offset 14, -4
 110 0002 84B0     		sub	sp, sp, #16
 111              		.cfi_def_cfa_offset 24
 112 0004 00AF     		add	r7, sp, #0
ARM GAS  C:\Users\rcaravac\AppData\Local\Temp\ccy3g4oq.s 			page 5


 113              		.cfi_def_cfa_register 7
 114 0006 F860     		str	r0, [r7, #12]
 115 0008 B960     		str	r1, [r7, #8]
 116 000a 7A60     		str	r2, [r7, #4]
 117:Generated_Source\PSoC5/cyfitter_cfg.c **** 	(void)memcpy(dest, src, n);
 117              		.loc 1 117 0
 118 000c 7A68     		ldr	r2, [r7, #4]
 119 000e B968     		ldr	r1, [r7, #8]
 120 0010 F868     		ldr	r0, [r7, #12]
 121 0012 FFF7FEFF 		bl	memcpy
 118:Generated_Source\PSoC5/cyfitter_cfg.c **** }
 122              		.loc 1 118 0
 123 0016 00BF     		nop
 124 0018 1037     		adds	r7, r7, #16
 125              		.cfi_def_cfa_offset 8
 126 001a BD46     		mov	sp, r7
 127              		.cfi_def_cfa_register 13
 128              		@ sp needed
 129 001c 80BD     		pop	{r7, pc}
 130              		.cfi_endproc
 131              	.LFE2:
 132              		.size	CYCONFIGCPYCODE, .-CYCONFIGCPYCODE
 133 001e 00BF     		.section	.text.CyClockStartupError,"ax",%progbits
 134              		.align	2
 135              		.thumb
 136              		.thumb_func
 137              		.type	CyClockStartupError, %function
 138              	CyClockStartupError:
 139              	.LFB3:
 119:Generated_Source\PSoC5/cyfitter_cfg.c **** 
 120:Generated_Source\PSoC5/cyfitter_cfg.c **** 
 121:Generated_Source\PSoC5/cyfitter_cfg.c **** 
 122:Generated_Source\PSoC5/cyfitter_cfg.c **** 
 123:Generated_Source\PSoC5/cyfitter_cfg.c **** /* Clock startup error codes                                                   */
 124:Generated_Source\PSoC5/cyfitter_cfg.c **** #define CYCLOCKSTART_NO_ERROR    0u
 125:Generated_Source\PSoC5/cyfitter_cfg.c **** #define CYCLOCKSTART_XTAL_ERROR  1u
 126:Generated_Source\PSoC5/cyfitter_cfg.c **** #define CYCLOCKSTART_32KHZ_ERROR 2u
 127:Generated_Source\PSoC5/cyfitter_cfg.c **** #define CYCLOCKSTART_PLL_ERROR   3u
 128:Generated_Source\PSoC5/cyfitter_cfg.c **** #define CYCLOCKSTART_FLL_ERROR   4u
 129:Generated_Source\PSoC5/cyfitter_cfg.c **** #define CYCLOCKSTART_WCO_ERROR   5u
 130:Generated_Source\PSoC5/cyfitter_cfg.c **** 
 131:Generated_Source\PSoC5/cyfitter_cfg.c **** 
 132:Generated_Source\PSoC5/cyfitter_cfg.c **** #ifdef CY_NEED_CYCLOCKSTARTUPERROR
 133:Generated_Source\PSoC5/cyfitter_cfg.c **** /*******************************************************************************
 134:Generated_Source\PSoC5/cyfitter_cfg.c **** * Function Name: CyClockStartupError
 135:Generated_Source\PSoC5/cyfitter_cfg.c **** ********************************************************************************
 136:Generated_Source\PSoC5/cyfitter_cfg.c **** * Summary:
 137:Generated_Source\PSoC5/cyfitter_cfg.c **** *  If an error is encountered during clock configuration (crystal startup error,
 138:Generated_Source\PSoC5/cyfitter_cfg.c **** *  PLL lock error, etc.), the system will end up here.  Unless reimplemented by
 139:Generated_Source\PSoC5/cyfitter_cfg.c **** *  the customer, this function will stop in an infinite loop.
 140:Generated_Source\PSoC5/cyfitter_cfg.c **** *
 141:Generated_Source\PSoC5/cyfitter_cfg.c **** * Parameters:
 142:Generated_Source\PSoC5/cyfitter_cfg.c **** *   void
 143:Generated_Source\PSoC5/cyfitter_cfg.c **** *
 144:Generated_Source\PSoC5/cyfitter_cfg.c **** * Return:
 145:Generated_Source\PSoC5/cyfitter_cfg.c **** *   void
 146:Generated_Source\PSoC5/cyfitter_cfg.c **** *
ARM GAS  C:\Users\rcaravac\AppData\Local\Temp\ccy3g4oq.s 			page 6


 147:Generated_Source\PSoC5/cyfitter_cfg.c **** *******************************************************************************/
 148:Generated_Source\PSoC5/cyfitter_cfg.c **** CY_CFG_UNUSED
 149:Generated_Source\PSoC5/cyfitter_cfg.c **** static void CyClockStartupError(uint8 errorCode);
 150:Generated_Source\PSoC5/cyfitter_cfg.c **** CY_CFG_UNUSED
 151:Generated_Source\PSoC5/cyfitter_cfg.c **** static void CyClockStartupError(uint8 errorCode)
 152:Generated_Source\PSoC5/cyfitter_cfg.c **** {
 140              		.loc 1 152 0
 141              		.cfi_startproc
 142              		@ args = 0, pretend = 0, frame = 8
 143              		@ frame_needed = 1, uses_anonymous_args = 0
 144              		@ link register save eliminated.
 145 0000 80B4     		push	{r7}
 146              		.cfi_def_cfa_offset 4
 147              		.cfi_offset 7, -4
 148 0002 83B0     		sub	sp, sp, #12
 149              		.cfi_def_cfa_offset 16
 150 0004 00AF     		add	r7, sp, #0
 151              		.cfi_def_cfa_register 7
 152 0006 0346     		mov	r3, r0
 153 0008 FB71     		strb	r3, [r7, #7]
 154              	.L5:
 153:Generated_Source\PSoC5/cyfitter_cfg.c ****     /* To remove the compiler warning if errorCode not used.                */
 154:Generated_Source\PSoC5/cyfitter_cfg.c ****     errorCode = errorCode;
 155:Generated_Source\PSoC5/cyfitter_cfg.c **** 
 156:Generated_Source\PSoC5/cyfitter_cfg.c ****     /* If we have a clock startup error (bad MHz crystal, PLL lock, etc.),  */
 157:Generated_Source\PSoC5/cyfitter_cfg.c ****     /* we will end up here to allow the customer to implement something to  */
 158:Generated_Source\PSoC5/cyfitter_cfg.c ****     /* deal with the clock condition.                                       */
 159:Generated_Source\PSoC5/cyfitter_cfg.c **** 
 160:Generated_Source\PSoC5/cyfitter_cfg.c **** #ifdef CY_CFG_CLOCK_STARTUP_ERROR_CALLBACK
 161:Generated_Source\PSoC5/cyfitter_cfg.c ****     CY_CFG_Clock_Startup_ErrorCallback();
 162:Generated_Source\PSoC5/cyfitter_cfg.c **** #else
 163:Generated_Source\PSoC5/cyfitter_cfg.c ****     /*  If not using CY_CFG_CLOCK_STARTUP_ERROR_CALLBACK, place your clock startup code here. */
 164:Generated_Source\PSoC5/cyfitter_cfg.c ****     /* `#START CyClockStartupError` */
 165:Generated_Source\PSoC5/cyfitter_cfg.c **** 
 166:Generated_Source\PSoC5/cyfitter_cfg.c **** 
 167:Generated_Source\PSoC5/cyfitter_cfg.c **** 
 168:Generated_Source\PSoC5/cyfitter_cfg.c ****     /* `#END` */
 169:Generated_Source\PSoC5/cyfitter_cfg.c **** 
 170:Generated_Source\PSoC5/cyfitter_cfg.c ****     while(1) {}
 155              		.loc 1 170 0 discriminator 1
 156 000a FEE7     		b	.L5
 157              		.cfi_endproc
 158              	.LFE3:
 159              		.size	CyClockStartupError, .-CyClockStartupError
 160              		.section	.dma_init,"a",%progbits
 161              		.align	2
 162              		.type	CH1_ADDR_DATA0.4972, %object
 163              		.size	CH1_ADDR_DATA0.4972, 8
 164              	CH1_ADDR_DATA0.4972:
 165 0000 01       		.byte	1
 166 0001 00       		.byte	0
 167 0002 00       		.byte	0
 168 0003 00       		.byte	0
 169 0004 00       		.byte	0
 170 0005 20       		.byte	32
 171 0006 00       		.byte	0
 172 0007 40       		.byte	64
ARM GAS  C:\Users\rcaravac\AppData\Local\Temp\ccy3g4oq.s 			page 7


 173              		.align	2
 174              		.type	CH2_ADDR_DATA0.4973, %object
 175              		.size	CH2_ADDR_DATA0.4973, 8
 176              	CH2_ADDR_DATA0.4973:
 177 0008 01       		.byte	1
 178 0009 00       		.byte	0
 179 000a 00       		.byte	0
 180 000b 00       		.byte	0
 181 000c 00       		.byte	0
 182 000d 20       		.byte	32
 183 000e 01       		.byte	1
 184 000f 40       		.byte	64
 185              		.align	2
 186              		.type	CH5_ADDR_DATA0.4974, %object
 187              		.size	CH5_ADDR_DATA0.4974, 8
 188              	CH5_ADDR_DATA0.4974:
 189 0010 01       		.byte	1
 190 0011 00       		.byte	0
 191 0012 00       		.byte	0
 192 0013 00       		.byte	0
 193 0014 00       		.byte	0
 194 0015 48       		.byte	72
 195 0016 00       		.byte	0
 196 0017 40       		.byte	64
 197              		.align	2
 198              		.type	CH6_ADDR_DATA0.4975, %object
 199              		.size	CH6_ADDR_DATA0.4975, 8
 200              	CH6_ADDR_DATA0.4975:
 201 0018 01       		.byte	1
 202 0019 00       		.byte	0
 203 001a 00       		.byte	0
 204 001b 00       		.byte	0
 205 001c 00       		.byte	0
 206 001d 48       		.byte	72
 207 001e 01       		.byte	1
 208 001f 40       		.byte	64
 209              		.align	2
 210              		.type	DMA_TD_START_CMD.4976, %object
 211              		.size	DMA_TD_START_CMD.4976, 5
 212              	DMA_TD_START_CMD.4976:
 213 0020 01       		.byte	1
 214 0021 00       		.byte	0
 215 0022 00       		.byte	0
 216 0023 00       		.byte	0
 217 0024 01       		.byte	1
 218 0025 000000   		.align	2
 219              		.type	CFG_TD_LIST0.4978, %object
 220              		.size	CFG_TD_LIST0.4978, 544
 221              	CFG_TD_LIST0.4978:
 222 0028 0800     		.short	8
 223 002a 02       		.byte	2
 224 002b 23       		.byte	35
 225 002c 0000     		.short	0
 226 002e 0876     		.short	30216
 227 0030 0800     		.short	8
 228 0032 03       		.byte	3
 229 0033 23       		.byte	35
ARM GAS  C:\Users\rcaravac\AppData\Local\Temp\ccy3g4oq.s 			page 8


 230 0034 0000     		.short	0
 231 0036 1076     		.short	30224
 232 0038 0800     		.short	8
 233 003a 04       		.byte	4
 234 003b 23       		.byte	35
 235 003c 0000     		.short	0
 236 003e 2876     		.short	30248
 237 0040 0800     		.short	8
 238 0042 05       		.byte	5
 239 0043 23       		.byte	35
 240 0044 0000     		.short	0
 241 0046 3076     		.short	30256
 242 0048 0500     		.short	5
 243 004a 06       		.byte	6
 244 004b 23       		.byte	35
 245 004c 0000     		.short	0
 246 004e 2070     		.short	28704
 247 0050 0500     		.short	5
 248 0052 07       		.byte	7
 249 0053 23       		.byte	35
 250 0054 0000     		.short	0
 251 0056 3070     		.short	28720
 252 0058 0500     		.short	5
 253 005a 08       		.byte	8
 254 005b 23       		.byte	35
 255 005c 0000     		.short	0
 256 005e 6070     		.short	28768
 257 0060 0500     		.short	5
 258 0062 FE       		.byte	-2
 259 0063 23       		.byte	35
 260 0064 0000     		.short	0
 261 0066 7070     		.short	28784
 262 0068 4000     		.short	64
 263 006a 0A       		.byte	10
 264 006b 22       		.byte	34
 265 006c 0000     		.short	0
 266 006e 3051     		.short	20784
 267 0070 1000     		.short	16
 268 0072 FE       		.byte	-2
 269 0073 22       		.byte	34
 270 0074 0000     		.short	0
 271 0076 F051     		.short	20976
 272 0078 8000     		.short	128
 273 007a 0C       		.byte	12
 274 007b 22       		.byte	34
 275 007c 0000     		.short	0
 276 007e 8000     		.short	128
 277 0080 0002     		.short	512
 278 0082 0D       		.byte	13
 279 0083 22       		.byte	34
 280 0084 0000     		.short	0
 281 0086 8001     		.short	384
 282 0088 0004     		.short	1024
 283 008a 0E       		.byte	14
 284 008b 22       		.byte	34
 285 008c 0000     		.short	0
 286 008e 0004     		.short	1024
ARM GAS  C:\Users\rcaravac\AppData\Local\Temp\ccy3g4oq.s 			page 9


 287 0090 8003     		.short	896
 288 0092 0F       		.byte	15
 289 0093 22       		.byte	34
 290 0094 0000     		.short	0
 291 0096 000A     		.short	2560
 292 0098 0002     		.short	512
 293 009a 10       		.byte	16
 294 009b 22       		.byte	34
 295 009c 0000     		.short	0
 296 009e 000E     		.short	3584
 297 00a0 8001     		.short	384
 298 00a2 11       		.byte	17
 299 00a3 22       		.byte	34
 300 00a4 0000     		.short	0
 301 00a6 0014     		.short	5120
 302 00a8 8001     		.short	384
 303 00aa 12       		.byte	18
 304 00ab 22       		.byte	34
 305 00ac 0000     		.short	0
 306 00ae 0016     		.short	5632
 307 00b0 8000     		.short	128
 308 00b2 13       		.byte	19
 309 00b3 22       		.byte	34
 310 00b4 0000     		.short	0
 311 00b6 0041     		.short	16640
 312 00b8 8000     		.short	128
 313 00ba 14       		.byte	20
 314 00bb 22       		.byte	34
 315 00bc 0000     		.short	0
 316 00be 0043     		.short	17152
 317 00c0 8000     		.short	128
 318 00c2 15       		.byte	21
 319 00c3 22       		.byte	34
 320 00c4 0000     		.short	0
 321 00c6 0049     		.short	18688
 322 00c8 8000     		.short	128
 323 00ca FE       		.byte	-2
 324 00cb 22       		.byte	34
 325 00cc 0000     		.short	0
 326 00ce 004C     		.short	19456
 327 00d0 0600     		.short	6
 328 00d2 17       		.byte	23
 329 00d3 23       		.byte	35
 330 00d4 0000     		.short	0
 331 00d6 6052     		.short	21088
 332 00d8 0C00     		.short	12
 333 00da 18       		.byte	24
 334 00db 23       		.byte	35
 335 00dc 0000     		.short	0
 336 00de 004F     		.short	20224
 337 00e0 0C00     		.short	12
 338 00e2 19       		.byte	25
 339 00e3 23       		.byte	35
 340 00e4 0000     		.short	0
 341 00e6 0C4F     		.short	20236
 342 00e8 0800     		.short	8
 343 00ea 1A       		.byte	26
ARM GAS  C:\Users\rcaravac\AppData\Local\Temp\ccy3g4oq.s 			page 10


 344 00eb 23       		.byte	35
 345 00ec 0000     		.short	0
 346 00ee 885A     		.short	23176
 347 00f0 2000     		.short	32
 348 00f2 1B       		.byte	27
 349 00f3 23       		.byte	35
 350 00f4 0000     		.short	0
 351 00f6 7064     		.short	25712
 352 00f8 2000     		.short	32
 353 00fa FE       		.byte	-2
 354 00fb 23       		.byte	35
 355 00fc 0000     		.short	0
 356 00fe 7065     		.short	25968
 357 0100 0800     		.short	8
 358 0102 1D       		.byte	29
 359 0103 23       		.byte	35
 360 0104 0000     		.short	0
 361 0106 0051     		.short	20736
 362 0108 8000     		.short	128
 363 010a 1E       		.byte	30
 364 010b 23       		.byte	35
 365 010c 0000     		.short	0
 366 010e 0000     		.short	0
 367 0110 8000     		.short	128
 368 0112 1F       		.byte	31
 369 0113 23       		.byte	35
 370 0114 0000     		.short	0
 371 0116 0008     		.short	2048
 372 0118 8000     		.short	128
 373 011a 20       		.byte	32
 374 011b 23       		.byte	35
 375 011c 0000     		.short	0
 376 011e 8008     		.short	2176
 377 0120 8000     		.short	128
 378 0122 21       		.byte	33
 379 0123 23       		.byte	35
 380 0124 0000     		.short	0
 381 0126 0018     		.short	6144
 382 0128 8000     		.short	128
 383 012a 22       		.byte	34
 384 012b 23       		.byte	35
 385 012c 0000     		.short	0
 386 012e 8018     		.short	6272
 387 0130 8000     		.short	128
 388 0132 23       		.byte	35
 389 0133 23       		.byte	35
 390 0134 0000     		.short	0
 391 0136 001A     		.short	6656
 392 0138 8000     		.short	128
 393 013a 24       		.byte	36
 394 013b 23       		.byte	35
 395 013c 0000     		.short	0
 396 013e 801A     		.short	6784
 397 0140 1000     		.short	16
 398 0142 25       		.byte	37
 399 0143 23       		.byte	35
 400 0144 0000     		.short	0
ARM GAS  C:\Users\rcaravac\AppData\Local\Temp\ccy3g4oq.s 			page 11


 401 0146 1050     		.short	20496
 402 0148 1000     		.short	16
 403 014a 26       		.byte	38
 404 014b 23       		.byte	35
 405 014c 0000     		.short	0
 406 014e 0050     		.short	20480
 407 0150 8000     		.short	128
 408 0152 27       		.byte	39
 409 0153 23       		.byte	35
 410 0154 0000     		.short	0
 411 0156 004D     		.short	19712
 412 0158 8000     		.short	128
 413 015a 28       		.byte	40
 414 015b 23       		.byte	35
 415 015c 0000     		.short	0
 416 015e 804D     		.short	19840
 417 0160 8000     		.short	128
 418 0162 29       		.byte	41
 419 0163 23       		.byte	35
 420 0164 0000     		.short	0
 421 0166 804C     		.short	19584
 422 0168 8000     		.short	128
 423 016a 2A       		.byte	42
 424 016b 23       		.byte	35
 425 016c 0000     		.short	0
 426 016e 0047     		.short	18176
 427 0170 8000     		.short	128
 428 0172 2B       		.byte	43
 429 0173 23       		.byte	35
 430 0174 0000     		.short	0
 431 0176 8047     		.short	18304
 432 0178 8000     		.short	128
 433 017a 2C       		.byte	44
 434 017b 23       		.byte	35
 435 017c 0000     		.short	0
 436 017e 0046     		.short	17920
 437 0180 8000     		.short	128
 438 0182 2D       		.byte	45
 439 0183 23       		.byte	35
 440 0184 0000     		.short	0
 441 0186 8046     		.short	18048
 442 0188 8000     		.short	128
 443 018a 2E       		.byte	46
 444 018b 23       		.byte	35
 445 018c 0000     		.short	0
 446 018e 0045     		.short	17664
 447 0190 8000     		.short	128
 448 0192 2F       		.byte	47
 449 0193 23       		.byte	35
 450 0194 0000     		.short	0
 451 0196 8045     		.short	17792
 452 0198 8000     		.short	128
 453 019a 30       		.byte	48
 454 019b 23       		.byte	35
 455 019c 0000     		.short	0
 456 019e 0044     		.short	17408
 457 01a0 8000     		.short	128
ARM GAS  C:\Users\rcaravac\AppData\Local\Temp\ccy3g4oq.s 			page 12


 458 01a2 31       		.byte	49
 459 01a3 23       		.byte	35
 460 01a4 0000     		.short	0
 461 01a6 8044     		.short	17536
 462 01a8 8000     		.short	128
 463 01aa 32       		.byte	50
 464 01ab 23       		.byte	35
 465 01ac 0000     		.short	0
 466 01ae 001B     		.short	6912
 467 01b0 8000     		.short	128
 468 01b2 33       		.byte	51
 469 01b3 23       		.byte	35
 470 01b4 0000     		.short	0
 471 01b6 801B     		.short	7040
 472 01b8 8000     		.short	128
 473 01ba 34       		.byte	52
 474 01bb 23       		.byte	35
 475 01bc 0000     		.short	0
 476 01be 8015     		.short	5504
 477 01c0 8000     		.short	128
 478 01c2 35       		.byte	53
 479 01c3 23       		.byte	35
 480 01c4 0000     		.short	0
 481 01c6 0019     		.short	6400
 482 01c8 8000     		.short	128
 483 01ca 36       		.byte	54
 484 01cb 23       		.byte	35
 485 01cc 0000     		.short	0
 486 01ce 8019     		.short	6528
 487 01d0 8000     		.short	128
 488 01d2 37       		.byte	55
 489 01d3 23       		.byte	35
 490 01d4 0000     		.short	0
 491 01d6 8017     		.short	6016
 492 01d8 8000     		.short	128
 493 01da 38       		.byte	56
 494 01db 23       		.byte	35
 495 01dc 0000     		.short	0
 496 01de 0009     		.short	2304
 497 01e0 8000     		.short	128
 498 01e2 39       		.byte	57
 499 01e3 23       		.byte	35
 500 01e4 0000     		.short	0
 501 01e6 8009     		.short	2432
 502 01e8 8000     		.short	128
 503 01ea 3A       		.byte	58
 504 01eb 23       		.byte	35
 505 01ec 0000     		.short	0
 506 01ee 800D     		.short	3456
 507 01f0 8000     		.short	128
 508 01f2 3B       		.byte	59
 509 01f3 23       		.byte	35
 510 01f4 0000     		.short	0
 511 01f6 8003     		.short	896
 512 01f8 8000     		.short	128
 513 01fa 3C       		.byte	60
 514 01fb 23       		.byte	35
ARM GAS  C:\Users\rcaravac\AppData\Local\Temp\ccy3g4oq.s 			page 13


 515 01fc 0000     		.short	0
 516 01fe 0001     		.short	256
 517 0200 8000     		.short	128
 518 0202 3D       		.byte	61
 519 0203 23       		.byte	35
 520 0204 0000     		.short	0
 521 0206 8049     		.short	18816
 522 0208 8000     		.short	128
 523 020a 3E       		.byte	62
 524 020b 23       		.byte	35
 525 020c 0000     		.short	0
 526 020e 0048     		.short	18432
 527 0210 8000     		.short	128
 528 0212 3F       		.byte	63
 529 0213 23       		.byte	35
 530 0214 0000     		.short	0
 531 0216 8048     		.short	18560
 532 0218 8000     		.short	128
 533 021a 40       		.byte	64
 534 021b 23       		.byte	35
 535 021c 0000     		.short	0
 536 021e 8043     		.short	17280
 537 0220 8000     		.short	128
 538 0222 41       		.byte	65
 539 0223 23       		.byte	35
 540 0224 0000     		.short	0
 541 0226 0042     		.short	16896
 542 0228 8000     		.short	128
 543 022a 42       		.byte	66
 544 022b 23       		.byte	35
 545 022c 0000     		.short	0
 546 022e 8042     		.short	17024
 547 0230 8000     		.short	128
 548 0232 43       		.byte	67
 549 0233 23       		.byte	35
 550 0234 0000     		.short	0
 551 0236 8041     		.short	16768
 552 0238 8000     		.short	128
 553 023a 44       		.byte	68
 554 023b 23       		.byte	35
 555 023c 0000     		.short	0
 556 023e 0040     		.short	16384
 557 0240 8000     		.short	128
 558 0242 FE       		.byte	-2
 559 0243 23       		.byte	35
 560 0244 0000     		.short	0
 561 0246 8040     		.short	16512
 562              		.section	.text.cfg_dma_init,"ax",%progbits
 563              		.align	2
 564              		.thumb
 565              		.thumb_func
 566              		.type	cfg_dma_init, %function
 567              	cfg_dma_init:
 568              	.LFB4:
 171:Generated_Source\PSoC5/cyfitter_cfg.c **** #endif /* CY_CFG_CLOCK_STARTUP_ERROR_CALLBACK */
 172:Generated_Source\PSoC5/cyfitter_cfg.c **** }
 173:Generated_Source\PSoC5/cyfitter_cfg.c **** #endif
ARM GAS  C:\Users\rcaravac\AppData\Local\Temp\ccy3g4oq.s 			page 14


 174:Generated_Source\PSoC5/cyfitter_cfg.c **** 
 175:Generated_Source\PSoC5/cyfitter_cfg.c **** /* IDMUX Address: CYREG_IDMUX_DRQ_CTL0 Size (bytes): 6 */
 176:Generated_Source\PSoC5/cyfitter_cfg.c **** #define BS_IDMUX_VAL ((const uint8 CYFAR *)0x48000000u)
 177:Generated_Source\PSoC5/cyfitter_cfg.c **** 
 178:Generated_Source\PSoC5/cyfitter_cfg.c **** /* IOPORT_7 Address: CYDEV_PRTDSI_PRT12_BASE Size (bytes): 6 */
 179:Generated_Source\PSoC5/cyfitter_cfg.c **** #define BS_IOPORT_7_VAL ((const uint8 CYFAR *)0x48000008u)
 180:Generated_Source\PSoC5/cyfitter_cfg.c **** 
 181:Generated_Source\PSoC5/cyfitter_cfg.c **** /* IDMUX_IRQ Address: CYREG_IDMUX_IRQ_CTL0 Size (bytes): 8 */
 182:Generated_Source\PSoC5/cyfitter_cfg.c **** #define BS_IDMUX_IRQ_VAL ((const uint8 CYFAR *)0x48000010u)
 183:Generated_Source\PSoC5/cyfitter_cfg.c **** 
 184:Generated_Source\PSoC5/cyfitter_cfg.c **** /* TMR0 Address: CYREG_TMR0_CFG0 Size (bytes): 12 */
 185:Generated_Source\PSoC5/cyfitter_cfg.c **** #define BS_TMR0_VAL ((const uint8 CYFAR *)0x48000018u)
 186:Generated_Source\PSoC5/cyfitter_cfg.c **** 
 187:Generated_Source\PSoC5/cyfitter_cfg.c **** /* TMR1 Address: CYREG_TMR1_CFG0 Size (bytes): 12 */
 188:Generated_Source\PSoC5/cyfitter_cfg.c **** #define BS_TMR1_VAL ((const uint8 CYFAR *)0x48000024u)
 189:Generated_Source\PSoC5/cyfitter_cfg.c **** 
 190:Generated_Source\PSoC5/cyfitter_cfg.c **** /* DAC1 Address: CYREG_DAC1_SW0 Size (bytes): 8 */
 191:Generated_Source\PSoC5/cyfitter_cfg.c **** #define BS_DAC1_VAL ((const uint8 CYFAR *)0x48000030u)
 192:Generated_Source\PSoC5/cyfitter_cfg.c **** 
 193:Generated_Source\PSoC5/cyfitter_cfg.c **** /* UDB_1_5_0_CONFIG Address: CYDEV_UCFG_B0_P0_U0_BASE Size (bytes): 128 */
 194:Generated_Source\PSoC5/cyfitter_cfg.c **** #define BS_UDB_1_5_0_CONFIG_VAL ((const uint8 CYFAR *)0x48000038u)
 195:Generated_Source\PSoC5/cyfitter_cfg.c **** 
 196:Generated_Source\PSoC5/cyfitter_cfg.c **** /* UDB_0_2_1_CONFIG Address: CYDEV_UCFG_B0_P4_U0_BASE Size (bytes): 128 */
 197:Generated_Source\PSoC5/cyfitter_cfg.c **** #define BS_UDB_0_2_1_CONFIG_VAL ((const uint8 CYFAR *)0x480000B8u)
 198:Generated_Source\PSoC5/cyfitter_cfg.c **** 
 199:Generated_Source\PSoC5/cyfitter_cfg.c **** /* UDB_0_2_0_CONFIG Address: CYDEV_UCFG_B0_P4_U1_BASE Size (bytes): 128 */
 200:Generated_Source\PSoC5/cyfitter_cfg.c **** #define BS_UDB_0_2_0_CONFIG_VAL ((const uint8 CYFAR *)0x48000138u)
 201:Generated_Source\PSoC5/cyfitter_cfg.c **** 
 202:Generated_Source\PSoC5/cyfitter_cfg.c **** /* UDB_0_1_1_CONFIG Address: CYDEV_UCFG_B1_P4_U0_BASE Size (bytes): 128 */
 203:Generated_Source\PSoC5/cyfitter_cfg.c **** #define BS_UDB_0_1_1_CONFIG_VAL ((const uint8 CYFAR *)0x480001B8u)
 204:Generated_Source\PSoC5/cyfitter_cfg.c **** 
 205:Generated_Source\PSoC5/cyfitter_cfg.c **** /* UDB_0_1_0_CONFIG Address: CYDEV_UCFG_B1_P4_U1_BASE Size (bytes): 128 */
 206:Generated_Source\PSoC5/cyfitter_cfg.c **** #define BS_UDB_0_1_0_CONFIG_VAL ((const uint8 CYFAR *)0x48000238u)
 207:Generated_Source\PSoC5/cyfitter_cfg.c **** 
 208:Generated_Source\PSoC5/cyfitter_cfg.c **** /* UDB_0_0_0_CONFIG Address: CYDEV_UCFG_B1_P5_U0_BASE Size (bytes): 128 */
 209:Generated_Source\PSoC5/cyfitter_cfg.c **** #define BS_UDB_0_0_0_CONFIG_VAL ((const uint8 CYFAR *)0x480002B8u)
 210:Generated_Source\PSoC5/cyfitter_cfg.c **** 
 211:Generated_Source\PSoC5/cyfitter_cfg.c **** /* UDB_0_0_1_CONFIG Address: CYDEV_UCFG_B1_P5_U1_BASE Size (bytes): 128 */
 212:Generated_Source\PSoC5/cyfitter_cfg.c **** #define BS_UDB_0_0_1_CONFIG_VAL ((const uint8 CYFAR *)0x48000338u)
 213:Generated_Source\PSoC5/cyfitter_cfg.c **** 
 214:Generated_Source\PSoC5/cyfitter_cfg.c **** /* UWRK_B0_WRK_STATCTL_BITS Address: CYDEV_UWRK_UWRK8_B0_BASE + 0x00000070u Size (bytes): 32 */
 215:Generated_Source\PSoC5/cyfitter_cfg.c **** #define BS_UWRK_B0_WRK_STATCTL_BITS_VAL ((const uint8 CYFAR *)0x480003B8u)
 216:Generated_Source\PSoC5/cyfitter_cfg.c **** 
 217:Generated_Source\PSoC5/cyfitter_cfg.c **** /* UWRK_B1_WRK_STATCTL_BITS Address: CYDEV_UWRK_UWRK8_B1_BASE + 0x00000070u Size (bytes): 32 */
 218:Generated_Source\PSoC5/cyfitter_cfg.c **** #define BS_UWRK_B1_WRK_STATCTL_BITS_VAL ((const uint8 CYFAR *)0x480003D8u)
 219:Generated_Source\PSoC5/cyfitter_cfg.c **** 
 220:Generated_Source\PSoC5/cyfitter_cfg.c **** /* UCFG_BCTL1 Address: CYREG_BCTL1_MDCLK_EN Size (bytes): 16 */
 221:Generated_Source\PSoC5/cyfitter_cfg.c **** #define BS_UCFG_BCTL1_VAL ((const uint8 CYFAR *)0x480003F8u)
 222:Generated_Source\PSoC5/cyfitter_cfg.c **** 
 223:Generated_Source\PSoC5/cyfitter_cfg.c **** /* UCFG_BCTL0 Address: CYREG_BCTL0_MDCLK_EN Size (bytes): 16 */
 224:Generated_Source\PSoC5/cyfitter_cfg.c **** #define BS_UCFG_BCTL0_VAL ((const uint8 CYFAR *)0x48000408u)
 225:Generated_Source\PSoC5/cyfitter_cfg.c **** 
 226:Generated_Source\PSoC5/cyfitter_cfg.c **** /* DSISWITCH_0_0 Address: CYDEV_UCFG_DSI13_BASE Size (bytes): 128 */
 227:Generated_Source\PSoC5/cyfitter_cfg.c **** #define BS_DSISWITCH_0_0_VAL ((const uint8 CYFAR *)0x48000418u)
 228:Generated_Source\PSoC5/cyfitter_cfg.c **** 
 229:Generated_Source\PSoC5/cyfitter_cfg.c **** /* DSI0_0_HV_ROUTING Address: CYDEV_UCFG_DSI13_BASE + 0x00000080u Size (bytes): 128 */
 230:Generated_Source\PSoC5/cyfitter_cfg.c **** #define BS_DSI0_0_HV_ROUTING_VAL ((const uint8 CYFAR *)0x48000498u)
ARM GAS  C:\Users\rcaravac\AppData\Local\Temp\ccy3g4oq.s 			page 15


 231:Generated_Source\PSoC5/cyfitter_cfg.c **** 
 232:Generated_Source\PSoC5/cyfitter_cfg.c **** /* DSI0_1_HV_ROUTING Address: CYDEV_UCFG_DSI12_BASE + 0x00000080u Size (bytes): 128 */
 233:Generated_Source\PSoC5/cyfitter_cfg.c **** #define BS_DSI0_1_HV_ROUTING_VAL ((const uint8 CYFAR *)0x48000518u)
 234:Generated_Source\PSoC5/cyfitter_cfg.c **** 
 235:Generated_Source\PSoC5/cyfitter_cfg.c **** /* DSISWITCH_0_2 Address: CYDEV_UCFG_DSI7_BASE Size (bytes): 128 */
 236:Generated_Source\PSoC5/cyfitter_cfg.c **** #define BS_DSISWITCH_0_2_VAL ((const uint8 CYFAR *)0x48000598u)
 237:Generated_Source\PSoC5/cyfitter_cfg.c **** 
 238:Generated_Source\PSoC5/cyfitter_cfg.c **** /* DSI0_2_HV_ROUTING Address: CYDEV_UCFG_DSI7_BASE + 0x00000080u Size (bytes): 128 */
 239:Generated_Source\PSoC5/cyfitter_cfg.c **** #define BS_DSI0_2_HV_ROUTING_VAL ((const uint8 CYFAR *)0x48000618u)
 240:Generated_Source\PSoC5/cyfitter_cfg.c **** 
 241:Generated_Source\PSoC5/cyfitter_cfg.c **** /* DSISWITCH_0_3 Address: CYDEV_UCFG_DSI6_BASE Size (bytes): 128 */
 242:Generated_Source\PSoC5/cyfitter_cfg.c **** #define BS_DSISWITCH_0_3_VAL ((const uint8 CYFAR *)0x48000698u)
 243:Generated_Source\PSoC5/cyfitter_cfg.c **** 
 244:Generated_Source\PSoC5/cyfitter_cfg.c **** /* DSI0_3_HV_ROUTING Address: CYDEV_UCFG_DSI6_BASE + 0x00000080u Size (bytes): 128 */
 245:Generated_Source\PSoC5/cyfitter_cfg.c **** #define BS_DSI0_3_HV_ROUTING_VAL ((const uint8 CYFAR *)0x48000718u)
 246:Generated_Source\PSoC5/cyfitter_cfg.c **** 
 247:Generated_Source\PSoC5/cyfitter_cfg.c **** /* DSISWITCH_0_4 Address: CYDEV_UCFG_DSI5_BASE Size (bytes): 128 */
 248:Generated_Source\PSoC5/cyfitter_cfg.c **** #define BS_DSISWITCH_0_4_VAL ((const uint8 CYFAR *)0x48000798u)
 249:Generated_Source\PSoC5/cyfitter_cfg.c **** 
 250:Generated_Source\PSoC5/cyfitter_cfg.c **** /* DSI0_4_HV_ROUTING Address: CYDEV_UCFG_DSI5_BASE + 0x00000080u Size (bytes): 128 */
 251:Generated_Source\PSoC5/cyfitter_cfg.c **** #define BS_DSI0_4_HV_ROUTING_VAL ((const uint8 CYFAR *)0x48000818u)
 252:Generated_Source\PSoC5/cyfitter_cfg.c **** 
 253:Generated_Source\PSoC5/cyfitter_cfg.c **** /* DSISWITCH_0_5 Address: CYDEV_UCFG_DSI4_BASE Size (bytes): 128 */
 254:Generated_Source\PSoC5/cyfitter_cfg.c **** #define BS_DSISWITCH_0_5_VAL ((const uint8 CYFAR *)0x48000898u)
 255:Generated_Source\PSoC5/cyfitter_cfg.c **** 
 256:Generated_Source\PSoC5/cyfitter_cfg.c **** /* DSI0_5_HV_ROUTING Address: CYDEV_UCFG_DSI4_BASE + 0x00000080u Size (bytes): 128 */
 257:Generated_Source\PSoC5/cyfitter_cfg.c **** #define BS_DSI0_5_HV_ROUTING_VAL ((const uint8 CYFAR *)0x48000918u)
 258:Generated_Source\PSoC5/cyfitter_cfg.c **** 
 259:Generated_Source\PSoC5/cyfitter_cfg.c **** /* UDBSWITCH_0_0 Address: CYDEV_UCFG_B1_P5_ROUTE_BASE Size (bytes): 128 */
 260:Generated_Source\PSoC5/cyfitter_cfg.c **** #define BS_UDBSWITCH_0_0_VAL ((const uint8 CYFAR *)0x48000998u)
 261:Generated_Source\PSoC5/cyfitter_cfg.c **** 
 262:Generated_Source\PSoC5/cyfitter_cfg.c **** /* UDB_1_0_HV_ROUTING Address: CYDEV_UCFG_B1_P5_ROUTE_BASE + 0x00000080u Size (bytes): 128 */
 263:Generated_Source\PSoC5/cyfitter_cfg.c **** #define BS_UDB_1_0_HV_ROUTING_VAL ((const uint8 CYFAR *)0x48000A18u)
 264:Generated_Source\PSoC5/cyfitter_cfg.c **** 
 265:Generated_Source\PSoC5/cyfitter_cfg.c **** /* UDB_2_0_HV_ROUTING Address: CYDEV_UCFG_B1_P2_ROUTE_BASE + 0x00000080u Size (bytes): 128 */
 266:Generated_Source\PSoC5/cyfitter_cfg.c **** #define BS_UDB_2_0_HV_ROUTING_VAL ((const uint8 CYFAR *)0x48000A98u)
 267:Generated_Source\PSoC5/cyfitter_cfg.c **** 
 268:Generated_Source\PSoC5/cyfitter_cfg.c **** /* UDBSWITCH_0_1 Address: CYDEV_UCFG_B1_P4_ROUTE_BASE Size (bytes): 128 */
 269:Generated_Source\PSoC5/cyfitter_cfg.c **** #define BS_UDBSWITCH_0_1_VAL ((const uint8 CYFAR *)0x48000B18u)
 270:Generated_Source\PSoC5/cyfitter_cfg.c **** 
 271:Generated_Source\PSoC5/cyfitter_cfg.c **** /* UDB_1_1_HV_ROUTING Address: CYDEV_UCFG_B1_P4_ROUTE_BASE + 0x00000080u Size (bytes): 128 */
 272:Generated_Source\PSoC5/cyfitter_cfg.c **** #define BS_UDB_1_1_HV_ROUTING_VAL ((const uint8 CYFAR *)0x48000B98u)
 273:Generated_Source\PSoC5/cyfitter_cfg.c **** 
 274:Generated_Source\PSoC5/cyfitter_cfg.c **** /* UDB_2_1_HV_ROUTING Address: CYDEV_UCFG_B1_P3_ROUTE_BASE + 0x00000080u Size (bytes): 128 */
 275:Generated_Source\PSoC5/cyfitter_cfg.c **** #define BS_UDB_2_1_HV_ROUTING_VAL ((const uint8 CYFAR *)0x48000C18u)
 276:Generated_Source\PSoC5/cyfitter_cfg.c **** 
 277:Generated_Source\PSoC5/cyfitter_cfg.c **** /* UDBSWITCH_0_2 Address: CYDEV_UCFG_B0_P4_ROUTE_BASE Size (bytes): 128 */
 278:Generated_Source\PSoC5/cyfitter_cfg.c **** #define BS_UDBSWITCH_0_2_VAL ((const uint8 CYFAR *)0x48000C98u)
 279:Generated_Source\PSoC5/cyfitter_cfg.c **** 
 280:Generated_Source\PSoC5/cyfitter_cfg.c **** /* UDB_1_2_HV_ROUTING Address: CYDEV_UCFG_B0_P4_ROUTE_BASE + 0x00000080u Size (bytes): 128 */
 281:Generated_Source\PSoC5/cyfitter_cfg.c **** #define BS_UDB_1_2_HV_ROUTING_VAL ((const uint8 CYFAR *)0x48000D18u)
 282:Generated_Source\PSoC5/cyfitter_cfg.c **** 
 283:Generated_Source\PSoC5/cyfitter_cfg.c **** /* UDB_1_4_HV_ROUTING Address: CYDEV_UCFG_B0_P6_ROUTE_BASE + 0x00000080u Size (bytes): 128 */
 284:Generated_Source\PSoC5/cyfitter_cfg.c **** #define BS_UDB_1_4_HV_ROUTING_VAL ((const uint8 CYFAR *)0x48000D98u)
 285:Generated_Source\PSoC5/cyfitter_cfg.c **** 
 286:Generated_Source\PSoC5/cyfitter_cfg.c **** /* UDB_2_4_HV_ROUTING Address: CYDEV_UCFG_B0_P1_ROUTE_BASE + 0x00000080u Size (bytes): 128 */
 287:Generated_Source\PSoC5/cyfitter_cfg.c **** #define BS_UDB_2_4_HV_ROUTING_VAL ((const uint8 CYFAR *)0x48000E18u)
ARM GAS  C:\Users\rcaravac\AppData\Local\Temp\ccy3g4oq.s 			page 16


 288:Generated_Source\PSoC5/cyfitter_cfg.c **** 
 289:Generated_Source\PSoC5/cyfitter_cfg.c **** /* UDBSWITCH_1_5 Address: CYDEV_UCFG_B0_P0_ROUTE_BASE Size (bytes): 128 */
 290:Generated_Source\PSoC5/cyfitter_cfg.c **** #define BS_UDBSWITCH_1_5_VAL ((const uint8 CYFAR *)0x48000E98u)
 291:Generated_Source\PSoC5/cyfitter_cfg.c **** 
 292:Generated_Source\PSoC5/cyfitter_cfg.c **** /* DSI3_0_HV_ROUTING Address: CYDEV_UCFG_DSI9_BASE + 0x00000080u Size (bytes): 128 */
 293:Generated_Source\PSoC5/cyfitter_cfg.c **** #define BS_DSI3_0_HV_ROUTING_VAL ((const uint8 CYFAR *)0x48000F18u)
 294:Generated_Source\PSoC5/cyfitter_cfg.c **** 
 295:Generated_Source\PSoC5/cyfitter_cfg.c **** /* DSISWITCH_1_1 Address: CYDEV_UCFG_DSI8_BASE Size (bytes): 128 */
 296:Generated_Source\PSoC5/cyfitter_cfg.c **** #define BS_DSISWITCH_1_1_VAL ((const uint8 CYFAR *)0x48000F98u)
 297:Generated_Source\PSoC5/cyfitter_cfg.c **** 
 298:Generated_Source\PSoC5/cyfitter_cfg.c **** /* DSI3_1_HV_ROUTING Address: CYDEV_UCFG_DSI8_BASE + 0x00000080u Size (bytes): 128 */
 299:Generated_Source\PSoC5/cyfitter_cfg.c **** #define BS_DSI3_1_HV_ROUTING_VAL ((const uint8 CYFAR *)0x48001018u)
 300:Generated_Source\PSoC5/cyfitter_cfg.c **** 
 301:Generated_Source\PSoC5/cyfitter_cfg.c **** /* DSI3_2_HV_ROUTING Address: CYDEV_UCFG_DSI3_BASE + 0x00000080u Size (bytes): 128 */
 302:Generated_Source\PSoC5/cyfitter_cfg.c **** #define BS_DSI3_2_HV_ROUTING_VAL ((const uint8 CYFAR *)0x48001098u)
 303:Generated_Source\PSoC5/cyfitter_cfg.c **** 
 304:Generated_Source\PSoC5/cyfitter_cfg.c **** /* DSISWITCH_1_3 Address: CYDEV_UCFG_DSI2_BASE Size (bytes): 128 */
 305:Generated_Source\PSoC5/cyfitter_cfg.c **** #define BS_DSISWITCH_1_3_VAL ((const uint8 CYFAR *)0x48001118u)
 306:Generated_Source\PSoC5/cyfitter_cfg.c **** 
 307:Generated_Source\PSoC5/cyfitter_cfg.c **** /* DSI3_3_HV_ROUTING Address: CYDEV_UCFG_DSI2_BASE + 0x00000080u Size (bytes): 128 */
 308:Generated_Source\PSoC5/cyfitter_cfg.c **** #define BS_DSI3_3_HV_ROUTING_VAL ((const uint8 CYFAR *)0x48001198u)
 309:Generated_Source\PSoC5/cyfitter_cfg.c **** 
 310:Generated_Source\PSoC5/cyfitter_cfg.c **** /* DSI3_4_HV_ROUTING Address: CYDEV_UCFG_DSI1_BASE + 0x00000080u Size (bytes): 128 */
 311:Generated_Source\PSoC5/cyfitter_cfg.c **** #define BS_DSI3_4_HV_ROUTING_VAL ((const uint8 CYFAR *)0x48001218u)
 312:Generated_Source\PSoC5/cyfitter_cfg.c **** 
 313:Generated_Source\PSoC5/cyfitter_cfg.c **** /* DSISWITCH_1_5 Address: CYDEV_UCFG_DSI0_BASE Size (bytes): 128 */
 314:Generated_Source\PSoC5/cyfitter_cfg.c **** #define BS_DSISWITCH_1_5_VAL ((const uint8 CYFAR *)0x48001298u)
 315:Generated_Source\PSoC5/cyfitter_cfg.c **** 
 316:Generated_Source\PSoC5/cyfitter_cfg.c **** /* DSI3_5_HV_ROUTING Address: CYDEV_UCFG_DSI0_BASE + 0x00000080u Size (bytes): 128 */
 317:Generated_Source\PSoC5/cyfitter_cfg.c **** #define BS_DSI3_5_HV_ROUTING_VAL ((const uint8 CYFAR *)0x48001318u)
 318:Generated_Source\PSoC5/cyfitter_cfg.c **** 
 319:Generated_Source\PSoC5/cyfitter_cfg.c **** /* IOPINS0_0 Address: CYREG_PRT0_DM0 Size (bytes): 8 */
 320:Generated_Source\PSoC5/cyfitter_cfg.c **** #define BS_IOPINS0_0_VAL ((const uint8 CYFAR *)0x48001398u)
 321:Generated_Source\PSoC5/cyfitter_cfg.c **** 
 322:Generated_Source\PSoC5/cyfitter_cfg.c **** /* IOPINS0_7 Address: CYREG_PRT12_DR Size (bytes): 10 */
 323:Generated_Source\PSoC5/cyfitter_cfg.c **** #define BS_IOPINS0_7_VAL ((const uint8 CYFAR *)0x480013A0u)
 324:Generated_Source\PSoC5/cyfitter_cfg.c **** 
 325:Generated_Source\PSoC5/cyfitter_cfg.c **** /* IOPINS0_1 Address: CYREG_PRT1_DM0 Size (bytes): 8 */
 326:Generated_Source\PSoC5/cyfitter_cfg.c **** #define BS_IOPINS0_1_VAL ((const uint8 CYFAR *)0x480013ACu)
 327:Generated_Source\PSoC5/cyfitter_cfg.c **** 
 328:Generated_Source\PSoC5/cyfitter_cfg.c **** /* IOPINS0_2 Address: CYREG_PRT2_DM0 Size (bytes): 8 */
 329:Generated_Source\PSoC5/cyfitter_cfg.c **** #define BS_IOPINS0_2_VAL ((const uint8 CYFAR *)0x480013B4u)
 330:Generated_Source\PSoC5/cyfitter_cfg.c **** 
 331:Generated_Source\PSoC5/cyfitter_cfg.c **** /* CYDEV_CLKDIST_ACFG0_CFG0 Address: CYREG_CLKDIST_ACFG0_CFG0 Size (bytes): 4 */
 332:Generated_Source\PSoC5/cyfitter_cfg.c **** #define BS_CYDEV_CLKDIST_ACFG0_CFG0_VAL ((const uint8 CYFAR *)0x480013BCu)
 333:Generated_Source\PSoC5/cyfitter_cfg.c **** 
 334:Generated_Source\PSoC5/cyfitter_cfg.c **** 
 335:Generated_Source\PSoC5/cyfitter_cfg.c **** /*******************************************************************************
 336:Generated_Source\PSoC5/cyfitter_cfg.c **** * Function Name: cfg_dma_init
 337:Generated_Source\PSoC5/cyfitter_cfg.c **** ********************************************************************************
 338:Generated_Source\PSoC5/cyfitter_cfg.c **** * Summary:
 339:Generated_Source\PSoC5/cyfitter_cfg.c **** *  This function is used to copy device configuration data from constant values
 340:Generated_Source\PSoC5/cyfitter_cfg.c **** *  stored in memory into the proper chip configuration registers using DMA.  It
 341:Generated_Source\PSoC5/cyfitter_cfg.c **** *  pulls data out of the CFG_TD_LISTs to know exactly how/what to configure.
 342:Generated_Source\PSoC5/cyfitter_cfg.c **** *
 343:Generated_Source\PSoC5/cyfitter_cfg.c **** * Parameters:  
 344:Generated_Source\PSoC5/cyfitter_cfg.c **** *   void
ARM GAS  C:\Users\rcaravac\AppData\Local\Temp\ccy3g4oq.s 			page 17


 345:Generated_Source\PSoC5/cyfitter_cfg.c **** *
 346:Generated_Source\PSoC5/cyfitter_cfg.c **** * Return:
 347:Generated_Source\PSoC5/cyfitter_cfg.c **** *   void
 348:Generated_Source\PSoC5/cyfitter_cfg.c **** *
 349:Generated_Source\PSoC5/cyfitter_cfg.c **** *******************************************************************************/
 350:Generated_Source\PSoC5/cyfitter_cfg.c **** static void cfg_dma_init(void);
 351:Generated_Source\PSoC5/cyfitter_cfg.c **** static void cfg_dma_init(void)
 352:Generated_Source\PSoC5/cyfitter_cfg.c **** {
 569              		.loc 1 352 0
 570              		.cfi_startproc
 571              		@ args = 0, pretend = 0, frame = 8
 572              		@ frame_needed = 1, uses_anonymous_args = 0
 573 0000 80B5     		push	{r7, lr}
 574              		.cfi_def_cfa_offset 8
 575              		.cfi_offset 7, -8
 576              		.cfi_offset 14, -4
 577 0002 82B0     		sub	sp, sp, #8
 578              		.cfi_def_cfa_offset 16
 579 0004 00AF     		add	r7, sp, #0
 580              		.cfi_def_cfa_register 7
 353:Generated_Source\PSoC5/cyfitter_cfg.c **** 	/* TD structure for little-endian systems. Does not require endian swap */
 354:Generated_Source\PSoC5/cyfitter_cfg.c **** 	CYPACKED struct td_t {
 355:Generated_Source\PSoC5/cyfitter_cfg.c **** 		uint16 size;
 356:Generated_Source\PSoC5/cyfitter_cfg.c **** 		uint8 next_td_ptr;
 357:Generated_Source\PSoC5/cyfitter_cfg.c **** 		uint8 flags;
 358:Generated_Source\PSoC5/cyfitter_cfg.c **** 		uint16 src;
 359:Generated_Source\PSoC5/cyfitter_cfg.c **** 		uint16 dest;
 360:Generated_Source\PSoC5/cyfitter_cfg.c **** 	} CYPACKED_ATTR;
 361:Generated_Source\PSoC5/cyfitter_cfg.c **** 
 362:Generated_Source\PSoC5/cyfitter_cfg.c **** 	/* PHUB_CH1_CFGMEM_CFG0/1 initialization data */
 363:Generated_Source\PSoC5/cyfitter_cfg.c **** 	DMAINITSEC static const uint8 CYCODE CH1_ADDR_DATA0[] = { 0x01u, 0x00u, 0x00u, 0x00u, 0x00u, 0x20u
 364:Generated_Source\PSoC5/cyfitter_cfg.c **** 
 365:Generated_Source\PSoC5/cyfitter_cfg.c **** 	/* PHUB_CH2_CFGMEM_CFG0/1 initialization data */
 366:Generated_Source\PSoC5/cyfitter_cfg.c **** 	DMAINITSEC static const uint8 CYCODE CH2_ADDR_DATA0[] = { 0x01u, 0x00u, 0x00u, 0x00u, 0x00u, 0x20u
 367:Generated_Source\PSoC5/cyfitter_cfg.c **** 
 368:Generated_Source\PSoC5/cyfitter_cfg.c **** 	/* PHUB_CH5_CFGMEM_CFG0/1 initialization data */
 369:Generated_Source\PSoC5/cyfitter_cfg.c **** 	DMAINITSEC static const uint8 CYCODE CH5_ADDR_DATA0[] = { 0x01u, 0x00u, 0x00u, 0x00u, 0x00u, 0x48u
 370:Generated_Source\PSoC5/cyfitter_cfg.c **** 
 371:Generated_Source\PSoC5/cyfitter_cfg.c **** 	/* PHUB_CH6_CFGMEM_CFG0/1 initialization data */
 372:Generated_Source\PSoC5/cyfitter_cfg.c **** 	DMAINITSEC static const uint8 CYCODE CH6_ADDR_DATA0[] = { 0x01u, 0x00u, 0x00u, 0x00u, 0x00u, 0x48u
 373:Generated_Source\PSoC5/cyfitter_cfg.c **** 
 374:Generated_Source\PSoC5/cyfitter_cfg.c **** 	/* Initialization data for each DMA channel's TD registers */
 375:Generated_Source\PSoC5/cyfitter_cfg.c **** 	DMAINITSEC static const uint8 CYCODE DMA_TD_START_CMD[] = { 0x01u, 0x00u, 0x00u, 0x00u, 0x01u };
 376:Generated_Source\PSoC5/cyfitter_cfg.c **** 
 377:Generated_Source\PSoC5/cyfitter_cfg.c **** 	CYALIGNED static uint32 CYXDATA DMA_ZERO_VAL;
 378:Generated_Source\PSoC5/cyfitter_cfg.c **** 
 379:Generated_Source\PSoC5/cyfitter_cfg.c **** 	/* This table holds all of the initialization data necessary for the DMA
 380:Generated_Source\PSoC5/cyfitter_cfg.c **** 	   process to transfer data from the source location to the destination. */
 381:Generated_Source\PSoC5/cyfitter_cfg.c **** 	/* Source addresses can be relocated, but only when in 32bit addresses.
 382:Generated_Source\PSoC5/cyfitter_cfg.c **** 	   Because the standard TD table only has 16bit addresses, we generate a
 383:Generated_Source\PSoC5/cyfitter_cfg.c **** 	   separate CFG_TD_ADDR table for the source addresses that supports 32bit
 384:Generated_Source\PSoC5/cyfitter_cfg.c **** 	   addresses. */
 385:Generated_Source\PSoC5/cyfitter_cfg.c **** 	DMAINITSEC static const struct td_t CYCODE CFG_TD_LIST0[] = {
 386:Generated_Source\PSoC5/cyfitter_cfg.c **** 		/* Size, Next, Flags, Source, Destination */
 387:Generated_Source\PSoC5/cyfitter_cfg.c **** 		{ 8u, 0x02u, 0x23u, (uint16)(uint32)(0u), (uint16)(CYREG_PHUB_CFGMEM1_CFG0) },	/* TD 1 */
 388:Generated_Source\PSoC5/cyfitter_cfg.c **** 		{ 8u, 0x03u, 0x23u, (uint16)(uint32)(0u), (uint16)(CYREG_PHUB_CFGMEM2_CFG0) },	/* TD 2 */
 389:Generated_Source\PSoC5/cyfitter_cfg.c **** 		{ 8u, 0x04u, 0x23u, (uint16)(uint32)(0u), (uint16)(CYREG_PHUB_CFGMEM5_CFG0) },	/* TD 3 */
ARM GAS  C:\Users\rcaravac\AppData\Local\Temp\ccy3g4oq.s 			page 18


 390:Generated_Source\PSoC5/cyfitter_cfg.c **** 		{ 8u, 0x05u, 0x23u, (uint16)(uint32)(0u), (uint16)(CYREG_PHUB_CFGMEM6_CFG0) },	/* TD 4 */
 391:Generated_Source\PSoC5/cyfitter_cfg.c **** 		{ 5u, 0x06u, 0x23u, (uint16)(uint32)(0u), (uint16)(CYREG_PHUB_CH1_BASIC_CFG) },	/* TD 5 */
 392:Generated_Source\PSoC5/cyfitter_cfg.c **** 		{ 5u, 0x07u, 0x23u, (uint16)(uint32)(0u), (uint16)(CYREG_PHUB_CH2_BASIC_CFG) },	/* TD 6 */
 393:Generated_Source\PSoC5/cyfitter_cfg.c **** 		{ 5u, 0x08u, 0x23u, (uint16)(uint32)(0u), (uint16)(CYREG_PHUB_CH5_BASIC_CFG) },	/* TD 7 */
 394:Generated_Source\PSoC5/cyfitter_cfg.c **** 		{ 5u, 0xFEu, 0x23u, (uint16)(uint32)(0u), (uint16)(CYREG_PHUB_CH6_BASIC_CFG) },	/* TD 8 */
 395:Generated_Source\PSoC5/cyfitter_cfg.c **** 		{ 64u, 0x0Au, 0x22u, (uint16)(uint32)(0u), (uint16)(CYREG_PRT3_DR) },	/* TD 9 */
 396:Generated_Source\PSoC5/cyfitter_cfg.c **** 		{ 16u, 0xFEu, 0x22u, (uint16)(uint32)(0u), (uint16)(CYREG_PRT15_DR) },	/* TD 10 */
 397:Generated_Source\PSoC5/cyfitter_cfg.c **** 		{ 128u, 0x0Cu, 0x22u, (uint16)(uint32)(0u), (uint16)(CYDEV_UCFG_B0_P0_U1_BASE) },	/* TD 11 */
 398:Generated_Source\PSoC5/cyfitter_cfg.c **** 		{ 512u, 0x0Du, 0x22u, (uint16)(uint32)(0u), (uint16)(CYDEV_UCFG_B0_P0_ROUTE_BASE + 0x00000080u) }
 399:Generated_Source\PSoC5/cyfitter_cfg.c **** 		{ 1024u, 0x0Eu, 0x22u, (uint16)(uint32)(0u), (uint16)(CYDEV_UCFG_B0_P2_U0_BASE) },	/* TD 13 */
 400:Generated_Source\PSoC5/cyfitter_cfg.c **** 		{ 896u, 0x0Fu, 0x22u, (uint16)(uint32)(0u), (uint16)(CYDEV_UCFG_B0_P5_U0_BASE) },	/* TD 14 */
 401:Generated_Source\PSoC5/cyfitter_cfg.c **** 		{ 512u, 0x10u, 0x22u, (uint16)(uint32)(0u), (uint16)(CYDEV_UCFG_B0_P7_U0_BASE) },	/* TD 15 */
 402:Generated_Source\PSoC5/cyfitter_cfg.c **** 		{ 384u, 0x11u, 0x22u, (uint16)(uint32)(0u), (uint16)(CYDEV_UCFG_B1_P2_U0_BASE) },	/* TD 16 */
 403:Generated_Source\PSoC5/cyfitter_cfg.c **** 		{ 384u, 0x12u, 0x22u, (uint16)(uint32)(0u), (uint16)(CYDEV_UCFG_B1_P3_U0_BASE) },	/* TD 17 */
 404:Generated_Source\PSoC5/cyfitter_cfg.c **** 		{ 128u, 0x13u, 0x22u, (uint16)(uint32)(0u), (uint16)(CYDEV_UCFG_DSI1_BASE) },	/* TD 18 */
 405:Generated_Source\PSoC5/cyfitter_cfg.c **** 		{ 128u, 0x14u, 0x22u, (uint16)(uint32)(0u), (uint16)(CYDEV_UCFG_DSI3_BASE) },	/* TD 19 */
 406:Generated_Source\PSoC5/cyfitter_cfg.c **** 		{ 128u, 0x15u, 0x22u, (uint16)(uint32)(0u), (uint16)(CYDEV_UCFG_DSI9_BASE) },	/* TD 20 */
 407:Generated_Source\PSoC5/cyfitter_cfg.c **** 		{ 128u, 0xFEu, 0x22u, (uint16)(uint32)(0u), (uint16)(CYDEV_UCFG_DSI12_BASE) },	/* TD 21 */
 408:Generated_Source\PSoC5/cyfitter_cfg.c **** 		{ 6u, 0x17u, 0x23u, (uint16)(uint32)(0u), (uint16)(CYDEV_PRTDSI_PRT12_BASE) },	/* TD 22 */
 409:Generated_Source\PSoC5/cyfitter_cfg.c **** 		{ 12u, 0x18u, 0x23u, (uint16)(uint32)(0u), (uint16)(CYREG_TMR0_CFG0) },	/* TD 23 */
 410:Generated_Source\PSoC5/cyfitter_cfg.c **** 		{ 12u, 0x19u, 0x23u, (uint16)(uint32)(0u), (uint16)(CYREG_TMR1_CFG0) },	/* TD 24 */
 411:Generated_Source\PSoC5/cyfitter_cfg.c **** 		{ 8u, 0x1Au, 0x23u, (uint16)(uint32)(0u), (uint16)(CYREG_DAC1_SW0) },	/* TD 25 */
 412:Generated_Source\PSoC5/cyfitter_cfg.c **** 		{ 32u, 0x1Bu, 0x23u, (uint16)(uint32)(0u), (uint16)(CYDEV_UWRK_UWRK8_B0_BASE + 0x00000070u) },	/*
 413:Generated_Source\PSoC5/cyfitter_cfg.c **** 		{ 32u, 0xFEu, 0x23u, (uint16)(uint32)(0u), (uint16)(CYDEV_UWRK_UWRK8_B1_BASE + 0x00000070u) },	/*
 414:Generated_Source\PSoC5/cyfitter_cfg.c **** 		{ 8u, 0x1Du, 0x23u, (uint16)(uint32)(0u), (uint16)(CYREG_IDMUX_IRQ_CTL0) },	/* TD 28 */
 415:Generated_Source\PSoC5/cyfitter_cfg.c **** 		{ 128u, 0x1Eu, 0x23u, (uint16)(uint32)(0u), (uint16)(CYDEV_UCFG_B0_P0_U0_BASE) },	/* TD 29 */
 416:Generated_Source\PSoC5/cyfitter_cfg.c **** 		{ 128u, 0x1Fu, 0x23u, (uint16)(uint32)(0u), (uint16)(CYDEV_UCFG_B0_P4_U0_BASE) },	/* TD 30 */
 417:Generated_Source\PSoC5/cyfitter_cfg.c **** 		{ 128u, 0x20u, 0x23u, (uint16)(uint32)(0u), (uint16)(CYDEV_UCFG_B0_P4_U1_BASE) },	/* TD 31 */
 418:Generated_Source\PSoC5/cyfitter_cfg.c **** 		{ 128u, 0x21u, 0x23u, (uint16)(uint32)(0u), (uint16)(CYDEV_UCFG_B1_P4_U0_BASE) },	/* TD 32 */
 419:Generated_Source\PSoC5/cyfitter_cfg.c **** 		{ 128u, 0x22u, 0x23u, (uint16)(uint32)(0u), (uint16)(CYDEV_UCFG_B1_P4_U1_BASE) },	/* TD 33 */
 420:Generated_Source\PSoC5/cyfitter_cfg.c **** 		{ 128u, 0x23u, 0x23u, (uint16)(uint32)(0u), (uint16)(CYDEV_UCFG_B1_P5_U0_BASE) },	/* TD 34 */
 421:Generated_Source\PSoC5/cyfitter_cfg.c **** 		{ 128u, 0x24u, 0x23u, (uint16)(uint32)(0u), (uint16)(CYDEV_UCFG_B1_P5_U1_BASE) },	/* TD 35 */
 422:Generated_Source\PSoC5/cyfitter_cfg.c **** 		{ 16u, 0x25u, 0x23u, (uint16)(uint32)(0u), (uint16)(CYREG_BCTL1_MDCLK_EN) },	/* TD 36 */
 423:Generated_Source\PSoC5/cyfitter_cfg.c **** 		{ 16u, 0x26u, 0x23u, (uint16)(uint32)(0u), (uint16)(CYREG_BCTL0_MDCLK_EN) },	/* TD 37 */
 424:Generated_Source\PSoC5/cyfitter_cfg.c **** 		{ 128u, 0x27u, 0x23u, (uint16)(uint32)(0u), (uint16)(CYDEV_UCFG_DSI13_BASE) },	/* TD 38 */
 425:Generated_Source\PSoC5/cyfitter_cfg.c **** 		{ 128u, 0x28u, 0x23u, (uint16)(uint32)(0u), (uint16)(CYDEV_UCFG_DSI13_BASE + 0x00000080u) },	/* T
 426:Generated_Source\PSoC5/cyfitter_cfg.c **** 		{ 128u, 0x29u, 0x23u, (uint16)(uint32)(0u), (uint16)(CYDEV_UCFG_DSI12_BASE + 0x00000080u) },	/* T
 427:Generated_Source\PSoC5/cyfitter_cfg.c **** 		{ 128u, 0x2Au, 0x23u, (uint16)(uint32)(0u), (uint16)(CYDEV_UCFG_DSI7_BASE) },	/* TD 41 */
 428:Generated_Source\PSoC5/cyfitter_cfg.c **** 		{ 128u, 0x2Bu, 0x23u, (uint16)(uint32)(0u), (uint16)(CYDEV_UCFG_DSI7_BASE + 0x00000080u) },	/* TD
 429:Generated_Source\PSoC5/cyfitter_cfg.c **** 		{ 128u, 0x2Cu, 0x23u, (uint16)(uint32)(0u), (uint16)(CYDEV_UCFG_DSI6_BASE) },	/* TD 43 */
 430:Generated_Source\PSoC5/cyfitter_cfg.c **** 		{ 128u, 0x2Du, 0x23u, (uint16)(uint32)(0u), (uint16)(CYDEV_UCFG_DSI6_BASE + 0x00000080u) },	/* TD
 431:Generated_Source\PSoC5/cyfitter_cfg.c **** 		{ 128u, 0x2Eu, 0x23u, (uint16)(uint32)(0u), (uint16)(CYDEV_UCFG_DSI5_BASE) },	/* TD 45 */
 432:Generated_Source\PSoC5/cyfitter_cfg.c **** 		{ 128u, 0x2Fu, 0x23u, (uint16)(uint32)(0u), (uint16)(CYDEV_UCFG_DSI5_BASE + 0x00000080u) },	/* TD
 433:Generated_Source\PSoC5/cyfitter_cfg.c **** 		{ 128u, 0x30u, 0x23u, (uint16)(uint32)(0u), (uint16)(CYDEV_UCFG_DSI4_BASE) },	/* TD 47 */
 434:Generated_Source\PSoC5/cyfitter_cfg.c **** 		{ 128u, 0x31u, 0x23u, (uint16)(uint32)(0u), (uint16)(CYDEV_UCFG_DSI4_BASE + 0x00000080u) },	/* TD
 435:Generated_Source\PSoC5/cyfitter_cfg.c **** 		{ 128u, 0x32u, 0x23u, (uint16)(uint32)(0u), (uint16)(CYDEV_UCFG_B1_P5_ROUTE_BASE) },	/* TD 49 */
 436:Generated_Source\PSoC5/cyfitter_cfg.c **** 		{ 128u, 0x33u, 0x23u, (uint16)(uint32)(0u), (uint16)(CYDEV_UCFG_B1_P5_ROUTE_BASE + 0x00000080u) }
 437:Generated_Source\PSoC5/cyfitter_cfg.c **** 		{ 128u, 0x34u, 0x23u, (uint16)(uint32)(0u), (uint16)(CYDEV_UCFG_B1_P2_ROUTE_BASE + 0x00000080u) }
 438:Generated_Source\PSoC5/cyfitter_cfg.c **** 		{ 128u, 0x35u, 0x23u, (uint16)(uint32)(0u), (uint16)(CYDEV_UCFG_B1_P4_ROUTE_BASE) },	/* TD 52 */
 439:Generated_Source\PSoC5/cyfitter_cfg.c **** 		{ 128u, 0x36u, 0x23u, (uint16)(uint32)(0u), (uint16)(CYDEV_UCFG_B1_P4_ROUTE_BASE + 0x00000080u) }
 440:Generated_Source\PSoC5/cyfitter_cfg.c **** 		{ 128u, 0x37u, 0x23u, (uint16)(uint32)(0u), (uint16)(CYDEV_UCFG_B1_P3_ROUTE_BASE + 0x00000080u) }
 441:Generated_Source\PSoC5/cyfitter_cfg.c **** 		{ 128u, 0x38u, 0x23u, (uint16)(uint32)(0u), (uint16)(CYDEV_UCFG_B0_P4_ROUTE_BASE) },	/* TD 55 */
 442:Generated_Source\PSoC5/cyfitter_cfg.c **** 		{ 128u, 0x39u, 0x23u, (uint16)(uint32)(0u), (uint16)(CYDEV_UCFG_B0_P4_ROUTE_BASE + 0x00000080u) }
 443:Generated_Source\PSoC5/cyfitter_cfg.c **** 		{ 128u, 0x3Au, 0x23u, (uint16)(uint32)(0u), (uint16)(CYDEV_UCFG_B0_P6_ROUTE_BASE + 0x00000080u) }
 444:Generated_Source\PSoC5/cyfitter_cfg.c **** 		{ 128u, 0x3Bu, 0x23u, (uint16)(uint32)(0u), (uint16)(CYDEV_UCFG_B0_P1_ROUTE_BASE + 0x00000080u) }
 445:Generated_Source\PSoC5/cyfitter_cfg.c **** 		{ 128u, 0x3Cu, 0x23u, (uint16)(uint32)(0u), (uint16)(CYDEV_UCFG_B0_P0_ROUTE_BASE) },	/* TD 59 */
 446:Generated_Source\PSoC5/cyfitter_cfg.c **** 		{ 128u, 0x3Du, 0x23u, (uint16)(uint32)(0u), (uint16)(CYDEV_UCFG_DSI9_BASE + 0x00000080u) },	/* TD
ARM GAS  C:\Users\rcaravac\AppData\Local\Temp\ccy3g4oq.s 			page 19


 447:Generated_Source\PSoC5/cyfitter_cfg.c **** 		{ 128u, 0x3Eu, 0x23u, (uint16)(uint32)(0u), (uint16)(CYDEV_UCFG_DSI8_BASE) },	/* TD 61 */
 448:Generated_Source\PSoC5/cyfitter_cfg.c **** 		{ 128u, 0x3Fu, 0x23u, (uint16)(uint32)(0u), (uint16)(CYDEV_UCFG_DSI8_BASE + 0x00000080u) },	/* TD
 449:Generated_Source\PSoC5/cyfitter_cfg.c **** 		{ 128u, 0x40u, 0x23u, (uint16)(uint32)(0u), (uint16)(CYDEV_UCFG_DSI3_BASE + 0x00000080u) },	/* TD
 450:Generated_Source\PSoC5/cyfitter_cfg.c **** 		{ 128u, 0x41u, 0x23u, (uint16)(uint32)(0u), (uint16)(CYDEV_UCFG_DSI2_BASE) },	/* TD 64 */
 451:Generated_Source\PSoC5/cyfitter_cfg.c **** 		{ 128u, 0x42u, 0x23u, (uint16)(uint32)(0u), (uint16)(CYDEV_UCFG_DSI2_BASE + 0x00000080u) },	/* TD
 452:Generated_Source\PSoC5/cyfitter_cfg.c **** 		{ 128u, 0x43u, 0x23u, (uint16)(uint32)(0u), (uint16)(CYDEV_UCFG_DSI1_BASE + 0x00000080u) },	/* TD
 453:Generated_Source\PSoC5/cyfitter_cfg.c **** 		{ 128u, 0x44u, 0x23u, (uint16)(uint32)(0u), (uint16)(CYDEV_UCFG_DSI0_BASE) },	/* TD 67 */
 454:Generated_Source\PSoC5/cyfitter_cfg.c **** 		{ 128u, 0xFEu, 0x23u, (uint16)(uint32)(0u), (uint16)(CYDEV_UCFG_DSI0_BASE + 0x00000080u) },	/* TD
 455:Generated_Source\PSoC5/cyfitter_cfg.c **** 	};
 456:Generated_Source\PSoC5/cyfitter_cfg.c **** 
 457:Generated_Source\PSoC5/cyfitter_cfg.c **** 	/* Source addresses can be relocated, but only when in 32bit addresses.
 458:Generated_Source\PSoC5/cyfitter_cfg.c **** 	   Because the standard TD table only has 16bit addresses, we generate a
 459:Generated_Source\PSoC5/cyfitter_cfg.c **** 	   separate table for the source addresses that does use 32bit addresses. This
 460:Generated_Source\PSoC5/cyfitter_cfg.c **** 	   table will be re-merged with the corresponding CFG_TD_LIST table during
 461:Generated_Source\PSoC5/cyfitter_cfg.c **** 	   initialization. */
 462:Generated_Source\PSoC5/cyfitter_cfg.c **** 	static const void * const CFG_TD_ADDR0[] = {
 463:Generated_Source\PSoC5/cyfitter_cfg.c **** 		(const void *)(CH1_ADDR_DATA0),	/* TD 1 */
 464:Generated_Source\PSoC5/cyfitter_cfg.c **** 		(const void *)(CH2_ADDR_DATA0),	/* TD 2 */
 465:Generated_Source\PSoC5/cyfitter_cfg.c **** 		(const void *)(CH5_ADDR_DATA0),	/* TD 3 */
 466:Generated_Source\PSoC5/cyfitter_cfg.c **** 		(const void *)(CH6_ADDR_DATA0),	/* TD 4 */
 467:Generated_Source\PSoC5/cyfitter_cfg.c **** 		(const void *)(DMA_TD_START_CMD),	/* TD 5 */
 468:Generated_Source\PSoC5/cyfitter_cfg.c **** 		(const void *)(DMA_TD_START_CMD),	/* TD 6 */
 469:Generated_Source\PSoC5/cyfitter_cfg.c **** 		(const void *)(DMA_TD_START_CMD),	/* TD 7 */
 470:Generated_Source\PSoC5/cyfitter_cfg.c **** 		(const void *)(DMA_TD_START_CMD),	/* TD 8 */
 471:Generated_Source\PSoC5/cyfitter_cfg.c **** 		(const void *)(&DMA_ZERO_VAL),	/* TD 9 */
 472:Generated_Source\PSoC5/cyfitter_cfg.c **** 		(const void *)(&DMA_ZERO_VAL),	/* TD 10 */
 473:Generated_Source\PSoC5/cyfitter_cfg.c **** 		(const void *)(&DMA_ZERO_VAL),	/* TD 11 */
 474:Generated_Source\PSoC5/cyfitter_cfg.c **** 		(const void *)(&DMA_ZERO_VAL),	/* TD 12 */
 475:Generated_Source\PSoC5/cyfitter_cfg.c **** 		(const void *)(&DMA_ZERO_VAL),	/* TD 13 */
 476:Generated_Source\PSoC5/cyfitter_cfg.c **** 		(const void *)(&DMA_ZERO_VAL),	/* TD 14 */
 477:Generated_Source\PSoC5/cyfitter_cfg.c **** 		(const void *)(&DMA_ZERO_VAL),	/* TD 15 */
 478:Generated_Source\PSoC5/cyfitter_cfg.c **** 		(const void *)(&DMA_ZERO_VAL),	/* TD 16 */
 479:Generated_Source\PSoC5/cyfitter_cfg.c **** 		(const void *)(&DMA_ZERO_VAL),	/* TD 17 */
 480:Generated_Source\PSoC5/cyfitter_cfg.c **** 		(const void *)(&DMA_ZERO_VAL),	/* TD 18 */
 481:Generated_Source\PSoC5/cyfitter_cfg.c **** 		(const void *)(&DMA_ZERO_VAL),	/* TD 19 */
 482:Generated_Source\PSoC5/cyfitter_cfg.c **** 		(const void *)(&DMA_ZERO_VAL),	/* TD 20 */
 483:Generated_Source\PSoC5/cyfitter_cfg.c **** 		(const void *)(&DMA_ZERO_VAL),	/* TD 21 */
 484:Generated_Source\PSoC5/cyfitter_cfg.c **** 		(const void *)(BS_IOPORT_7_VAL),	/* TD 22 */
 485:Generated_Source\PSoC5/cyfitter_cfg.c **** 		(const void *)(BS_TMR0_VAL),	/* TD 23 */
 486:Generated_Source\PSoC5/cyfitter_cfg.c **** 		(const void *)(BS_TMR1_VAL),	/* TD 24 */
 487:Generated_Source\PSoC5/cyfitter_cfg.c **** 		(const void *)(BS_DAC1_VAL),	/* TD 25 */
 488:Generated_Source\PSoC5/cyfitter_cfg.c **** 		(const void *)(BS_UWRK_B0_WRK_STATCTL_BITS_VAL),	/* TD 26 */
 489:Generated_Source\PSoC5/cyfitter_cfg.c **** 		(const void *)(BS_UWRK_B1_WRK_STATCTL_BITS_VAL),	/* TD 27 */
 490:Generated_Source\PSoC5/cyfitter_cfg.c **** 		(const void *)(BS_IDMUX_IRQ_VAL),	/* TD 28 */
 491:Generated_Source\PSoC5/cyfitter_cfg.c **** 		(const void *)(BS_UDB_1_5_0_CONFIG_VAL),	/* TD 29 */
 492:Generated_Source\PSoC5/cyfitter_cfg.c **** 		(const void *)(BS_UDB_0_2_1_CONFIG_VAL),	/* TD 30 */
 493:Generated_Source\PSoC5/cyfitter_cfg.c **** 		(const void *)(BS_UDB_0_2_0_CONFIG_VAL),	/* TD 31 */
 494:Generated_Source\PSoC5/cyfitter_cfg.c **** 		(const void *)(BS_UDB_0_1_1_CONFIG_VAL),	/* TD 32 */
 495:Generated_Source\PSoC5/cyfitter_cfg.c **** 		(const void *)(BS_UDB_0_1_0_CONFIG_VAL),	/* TD 33 */
 496:Generated_Source\PSoC5/cyfitter_cfg.c **** 		(const void *)(BS_UDB_0_0_0_CONFIG_VAL),	/* TD 34 */
 497:Generated_Source\PSoC5/cyfitter_cfg.c **** 		(const void *)(BS_UDB_0_0_1_CONFIG_VAL),	/* TD 35 */
 498:Generated_Source\PSoC5/cyfitter_cfg.c **** 		(const void *)(BS_UCFG_BCTL1_VAL),	/* TD 36 */
 499:Generated_Source\PSoC5/cyfitter_cfg.c **** 		(const void *)(BS_UCFG_BCTL0_VAL),	/* TD 37 */
 500:Generated_Source\PSoC5/cyfitter_cfg.c **** 		(const void *)(BS_DSISWITCH_0_0_VAL),	/* TD 38 */
 501:Generated_Source\PSoC5/cyfitter_cfg.c **** 		(const void *)(BS_DSI0_0_HV_ROUTING_VAL),	/* TD 39 */
 502:Generated_Source\PSoC5/cyfitter_cfg.c **** 		(const void *)(BS_DSI0_1_HV_ROUTING_VAL),	/* TD 40 */
 503:Generated_Source\PSoC5/cyfitter_cfg.c **** 		(const void *)(BS_DSISWITCH_0_2_VAL),	/* TD 41 */
ARM GAS  C:\Users\rcaravac\AppData\Local\Temp\ccy3g4oq.s 			page 20


 504:Generated_Source\PSoC5/cyfitter_cfg.c **** 		(const void *)(BS_DSI0_2_HV_ROUTING_VAL),	/* TD 42 */
 505:Generated_Source\PSoC5/cyfitter_cfg.c **** 		(const void *)(BS_DSISWITCH_0_3_VAL),	/* TD 43 */
 506:Generated_Source\PSoC5/cyfitter_cfg.c **** 		(const void *)(BS_DSI0_3_HV_ROUTING_VAL),	/* TD 44 */
 507:Generated_Source\PSoC5/cyfitter_cfg.c **** 		(const void *)(BS_DSISWITCH_0_4_VAL),	/* TD 45 */
 508:Generated_Source\PSoC5/cyfitter_cfg.c **** 		(const void *)(BS_DSI0_4_HV_ROUTING_VAL),	/* TD 46 */
 509:Generated_Source\PSoC5/cyfitter_cfg.c **** 		(const void *)(BS_DSISWITCH_0_5_VAL),	/* TD 47 */
 510:Generated_Source\PSoC5/cyfitter_cfg.c **** 		(const void *)(BS_DSI0_5_HV_ROUTING_VAL),	/* TD 48 */
 511:Generated_Source\PSoC5/cyfitter_cfg.c **** 		(const void *)(BS_UDBSWITCH_0_0_VAL),	/* TD 49 */
 512:Generated_Source\PSoC5/cyfitter_cfg.c **** 		(const void *)(BS_UDB_1_0_HV_ROUTING_VAL),	/* TD 50 */
 513:Generated_Source\PSoC5/cyfitter_cfg.c **** 		(const void *)(BS_UDB_2_0_HV_ROUTING_VAL),	/* TD 51 */
 514:Generated_Source\PSoC5/cyfitter_cfg.c **** 		(const void *)(BS_UDBSWITCH_0_1_VAL),	/* TD 52 */
 515:Generated_Source\PSoC5/cyfitter_cfg.c **** 		(const void *)(BS_UDB_1_1_HV_ROUTING_VAL),	/* TD 53 */
 516:Generated_Source\PSoC5/cyfitter_cfg.c **** 		(const void *)(BS_UDB_2_1_HV_ROUTING_VAL),	/* TD 54 */
 517:Generated_Source\PSoC5/cyfitter_cfg.c **** 		(const void *)(BS_UDBSWITCH_0_2_VAL),	/* TD 55 */
 518:Generated_Source\PSoC5/cyfitter_cfg.c **** 		(const void *)(BS_UDB_1_2_HV_ROUTING_VAL),	/* TD 56 */
 519:Generated_Source\PSoC5/cyfitter_cfg.c **** 		(const void *)(BS_UDB_1_4_HV_ROUTING_VAL),	/* TD 57 */
 520:Generated_Source\PSoC5/cyfitter_cfg.c **** 		(const void *)(BS_UDB_2_4_HV_ROUTING_VAL),	/* TD 58 */
 521:Generated_Source\PSoC5/cyfitter_cfg.c **** 		(const void *)(BS_UDBSWITCH_1_5_VAL),	/* TD 59 */
 522:Generated_Source\PSoC5/cyfitter_cfg.c **** 		(const void *)(BS_DSI3_0_HV_ROUTING_VAL),	/* TD 60 */
 523:Generated_Source\PSoC5/cyfitter_cfg.c **** 		(const void *)(BS_DSISWITCH_1_1_VAL),	/* TD 61 */
 524:Generated_Source\PSoC5/cyfitter_cfg.c **** 		(const void *)(BS_DSI3_1_HV_ROUTING_VAL),	/* TD 62 */
 525:Generated_Source\PSoC5/cyfitter_cfg.c **** 		(const void *)(BS_DSI3_2_HV_ROUTING_VAL),	/* TD 63 */
 526:Generated_Source\PSoC5/cyfitter_cfg.c **** 		(const void *)(BS_DSISWITCH_1_3_VAL),	/* TD 64 */
 527:Generated_Source\PSoC5/cyfitter_cfg.c **** 		(const void *)(BS_DSI3_3_HV_ROUTING_VAL),	/* TD 65 */
 528:Generated_Source\PSoC5/cyfitter_cfg.c **** 		(const void *)(BS_DSI3_4_HV_ROUTING_VAL),	/* TD 66 */
 529:Generated_Source\PSoC5/cyfitter_cfg.c **** 		(const void *)(BS_DSISWITCH_1_5_VAL),	/* TD 67 */
 530:Generated_Source\PSoC5/cyfitter_cfg.c **** 		(const void *)(BS_DSI3_5_HV_ROUTING_VAL),	/* TD 68 */
 531:Generated_Source\PSoC5/cyfitter_cfg.c **** 	};
 532:Generated_Source\PSoC5/cyfitter_cfg.c **** 
 533:Generated_Source\PSoC5/cyfitter_cfg.c **** 
 534:Generated_Source\PSoC5/cyfitter_cfg.c **** 	uint32 i;
 535:Generated_Source\PSoC5/cyfitter_cfg.c **** 
 536:Generated_Source\PSoC5/cyfitter_cfg.c **** 	DMA_ZERO_VAL = 0u;
 581              		.loc 1 536 0
 582 0006 454B     		ldr	r3, .L15
 583 0008 0022     		movs	r2, #0
 584 000a 1A60     		str	r2, [r3]
 537:Generated_Source\PSoC5/cyfitter_cfg.c **** 	CY_SET_REG8((void CYXDATA *)CYREG_PHUB_CFGMEM0_CFG0, 0x10u);	/* set burstcnt */
 585              		.loc 1 537 0
 586 000c 444B     		ldr	r3, .L15+4
 587 000e 1022     		movs	r2, #16
 588 0010 1A70     		strb	r2, [r3]
 538:Generated_Source\PSoC5/cyfitter_cfg.c **** 	CY_SET_REG8((void CYXDATA *)CYREG_PHUB_CH0_BASIC_CFG, 0x01u);	/* enable ch0 */
 589              		.loc 1 538 0
 590 0012 444B     		ldr	r3, .L15+8
 591 0014 0122     		movs	r2, #1
 592 0016 1A70     		strb	r2, [r3]
 539:Generated_Source\PSoC5/cyfitter_cfg.c **** 	CY_SET_REG8((void CYXDATA *)(CYREG_PHUB_CH0_BASIC_STATUS+1u), 0x00u);	/* set first TD to 0 */
 593              		.loc 1 539 0
 594 0018 434B     		ldr	r3, .L15+12
 595 001a 0022     		movs	r2, #0
 596 001c 1A70     		strb	r2, [r3]
 540:Generated_Source\PSoC5/cyfitter_cfg.c **** 	CY_SET_REG16((void CYXDATA *)CYREG_PHUB_TDMEM0_ORIG_TD0, 68u*8u);	/* transfer size */
 597              		.loc 1 540 0
 598 001e 434B     		ldr	r3, .L15+16
 599 0020 4FF40872 		mov	r2, #544
 600 0024 1A80     		strh	r2, [r3]	@ movhi
ARM GAS  C:\Users\rcaravac\AppData\Local\Temp\ccy3g4oq.s 			page 21


 541:Generated_Source\PSoC5/cyfitter_cfg.c **** 	CY_SET_REG8((void CYXDATA *)(CYREG_PHUB_TDMEM0_ORIG_TD0+2u), 0x01u);	/* set next TD to 1 */
 601              		.loc 1 541 0
 602 0026 424B     		ldr	r3, .L15+20
 603 0028 0122     		movs	r2, #1
 604 002a 1A70     		strb	r2, [r3]
 542:Generated_Source\PSoC5/cyfitter_cfg.c **** 	CY_SET_REG8((void CYXDATA *)(CYREG_PHUB_TDMEM0_ORIG_TD0+3u), 0x03u);	/* set TD flags */
 605              		.loc 1 542 0
 606 002c 414B     		ldr	r3, .L15+24
 607 002e 0322     		movs	r2, #3
 608 0030 1A70     		strb	r2, [r3]
 543:Generated_Source\PSoC5/cyfitter_cfg.c **** 	CY_SET_REG16((void CYXDATA *)CYREG_PHUB_TDMEM0_ORIG_TD1, (uint16)((uint32)CFG_TD_LIST0 & 0x0000FFF
 609              		.loc 1 543 0
 610 0032 414B     		ldr	r3, .L15+28
 611 0034 414A     		ldr	r2, .L15+32
 612 0036 92B2     		uxth	r2, r2
 613 0038 1A80     		strh	r2, [r3]	@ movhi
 544:Generated_Source\PSoC5/cyfitter_cfg.c **** 	CY_SET_REG16((void CYXDATA *)(CYREG_PHUB_TDMEM0_ORIG_TD1+2u), CYDEV_PHUB_TDMEM1_BASE);	/* set td0'
 614              		.loc 1 544 0
 615 003a 414B     		ldr	r3, .L15+36
 616 003c 47F60802 		movw	r2, #30728
 617 0040 1A80     		strh	r2, [r3]	@ movhi
 545:Generated_Source\PSoC5/cyfitter_cfg.c **** 	CY_SET_REG16((void CYXDATA *)CYREG_PHUB_CFGMEM0_CFG1, (uint16)(CYDEV_FLASH_BASE >> 16));	/* set ch
 618              		.loc 1 545 0
 619 0042 404B     		ldr	r3, .L15+40
 620 0044 0022     		movs	r2, #0
 621 0046 1A80     		strh	r2, [r3]	@ movhi
 546:Generated_Source\PSoC5/cyfitter_cfg.c **** 	CY_SET_REG16((void CYXDATA *)(CYREG_PHUB_CFGMEM0_CFG1+2u), (uint16)(CYDEV_PHUB_TDMEM1_BASE >> 16))
 622              		.loc 1 546 0
 623 0048 3F4B     		ldr	r3, .L15+44
 624 004a 4FF48042 		mov	r2, #16384
 625 004e 1A80     		strh	r2, [r3]	@ movhi
 547:Generated_Source\PSoC5/cyfitter_cfg.c **** 	CY_SET_REG8((void CYXDATA *)(CYREG_PHUB_CH1_BASIC_STATUS+1u), 0x09u);	/* ch1 first TD: 9 */
 626              		.loc 1 547 0
 627 0050 3E4B     		ldr	r3, .L15+48
 628 0052 0922     		movs	r2, #9
 629 0054 1A70     		strb	r2, [r3]
 548:Generated_Source\PSoC5/cyfitter_cfg.c **** 	CY_SET_REG8((void CYXDATA *)(CYREG_PHUB_CH2_BASIC_STATUS+1u), 0x0Bu);	/* ch2 first TD: 11 */
 630              		.loc 1 548 0
 631 0056 3E4B     		ldr	r3, .L15+52
 632 0058 0B22     		movs	r2, #11
 633 005a 1A70     		strb	r2, [r3]
 549:Generated_Source\PSoC5/cyfitter_cfg.c **** 	CY_SET_REG8((void CYXDATA *)(CYREG_PHUB_CH5_BASIC_STATUS+1u), 0x16u);	/* ch5 first TD: 22 */
 634              		.loc 1 549 0
 635 005c 3D4B     		ldr	r3, .L15+56
 636 005e 1622     		movs	r2, #22
 637 0060 1A70     		strb	r2, [r3]
 550:Generated_Source\PSoC5/cyfitter_cfg.c **** 	CY_SET_REG8((void CYXDATA *)(CYREG_PHUB_CH6_BASIC_STATUS+1u), 0x1Cu);	/* ch6 first TD: 28 */
 638              		.loc 1 550 0
 639 0062 3D4B     		ldr	r3, .L15+60
 640 0064 1C22     		movs	r2, #28
 641 0066 1A70     		strb	r2, [r3]
 551:Generated_Source\PSoC5/cyfitter_cfg.c **** 
 552:Generated_Source\PSoC5/cyfitter_cfg.c **** 	CY_CFG_MEMORY_BARRIER();
 642              		.loc 1 552 0
 643 0068 BFF35F8F 		dmb	sy
 553:Generated_Source\PSoC5/cyfitter_cfg.c **** 	CY_SET_REG8((void CYXDATA *)CYREG_PHUB_CH0_ACTION, 0x01u); /* cpu_req */
 644              		.loc 1 553 0
ARM GAS  C:\Users\rcaravac\AppData\Local\Temp\ccy3g4oq.s 			page 22


 645 006c 3B4B     		ldr	r3, .L15+64
 646 006e 0122     		movs	r2, #1
 647 0070 1A70     		strb	r2, [r3]
 554:Generated_Source\PSoC5/cyfitter_cfg.c **** 	CY_CFG_MEMORY_BARRIER();
 648              		.loc 1 554 0
 649 0072 BFF35F8F 		dmb	sy
 555:Generated_Source\PSoC5/cyfitter_cfg.c **** 
 556:Generated_Source\PSoC5/cyfitter_cfg.c **** 	/* Wait for TDs to be copied into TDMEM */
 557:Generated_Source\PSoC5/cyfitter_cfg.c **** 	while (CY_GET_REG16((void CYXDATA *)CYREG_PHUB_TDMEM0_ORIG_TD0) != 0u) { }
 650              		.loc 1 557 0
 651 0076 00BF     		nop
 652              	.L7:
 653              		.loc 1 557 0 is_stmt 0 discriminator 1
 654 0078 2C4B     		ldr	r3, .L15+16
 655 007a 1B88     		ldrh	r3, [r3]	@ movhi
 656 007c 9BB2     		uxth	r3, r3
 657 007e 002B     		cmp	r3, #0
 658 0080 FAD1     		bne	.L7
 558:Generated_Source\PSoC5/cyfitter_cfg.c **** 
 559:Generated_Source\PSoC5/cyfitter_cfg.c **** 	/* Recombine TD source table (CFG_TD_ADDR0) with full TD table (CFG_TD_LIST0) */
 560:Generated_Source\PSoC5/cyfitter_cfg.c **** 	for (i = 0u; i < 68u; i++)
 659              		.loc 1 560 0 is_stmt 1
 660 0082 0023     		movs	r3, #0
 661 0084 7B60     		str	r3, [r7, #4]
 662 0086 0DE0     		b	.L8
 663              	.L9:
 561:Generated_Source\PSoC5/cyfitter_cfg.c **** 	{
 562:Generated_Source\PSoC5/cyfitter_cfg.c **** 		CY_SET_REG16((void CYXDATA *)(CYREG_PHUB_TDMEM1_ORIG_TD1 + (sizeof(struct td_t)*i)), (uint16)(uin
 664              		.loc 1 562 0 discriminator 3
 665 0088 7B68     		ldr	r3, [r7, #4]
 666 008a DA00     		lsls	r2, r3, #3
 667 008c 344B     		ldr	r3, .L15+68
 668 008e 1344     		add	r3, r3, r2
 669 0090 1946     		mov	r1, r3
 670 0092 344A     		ldr	r2, .L15+72
 671 0094 7B68     		ldr	r3, [r7, #4]
 672 0096 52F82330 		ldr	r3, [r2, r3, lsl #2]
 673 009a 9BB2     		uxth	r3, r3
 674 009c 0B80     		strh	r3, [r1]	@ movhi
 560:Generated_Source\PSoC5/cyfitter_cfg.c **** 	{
 675              		.loc 1 560 0 discriminator 3
 676 009e 7B68     		ldr	r3, [r7, #4]
 677 00a0 0133     		adds	r3, r3, #1
 678 00a2 7B60     		str	r3, [r7, #4]
 679              	.L8:
 560:Generated_Source\PSoC5/cyfitter_cfg.c **** 	{
 680              		.loc 1 560 0 is_stmt 0 discriminator 1
 681 00a4 7B68     		ldr	r3, [r7, #4]
 682 00a6 432B     		cmp	r3, #67
 683 00a8 EED9     		bls	.L9
 563:Generated_Source\PSoC5/cyfitter_cfg.c **** 	}
 564:Generated_Source\PSoC5/cyfitter_cfg.c **** 
 565:Generated_Source\PSoC5/cyfitter_cfg.c **** 	CY_CFG_MEMORY_BARRIER();
 684              		.loc 1 565 0 is_stmt 1
 685 00aa BFF35F8F 		dmb	sy
 566:Generated_Source\PSoC5/cyfitter_cfg.c **** 	CY_SET_REG8((void CYXDATA *)CYREG_PHUB_CH0_ACTION, 0x01u); /* cpu_req */
 686              		.loc 1 566 0
ARM GAS  C:\Users\rcaravac\AppData\Local\Temp\ccy3g4oq.s 			page 23


 687 00ae 2B4B     		ldr	r3, .L15+64
 688 00b0 0122     		movs	r2, #1
 689 00b2 1A70     		strb	r2, [r3]
 567:Generated_Source\PSoC5/cyfitter_cfg.c **** 	CY_CFG_MEMORY_BARRIER();
 690              		.loc 1 567 0
 691 00b4 BFF35F8F 		dmb	sy
 568:Generated_Source\PSoC5/cyfitter_cfg.c **** 
 569:Generated_Source\PSoC5/cyfitter_cfg.c **** 	/* Wait for all DMA transfers to complete */
 570:Generated_Source\PSoC5/cyfitter_cfg.c **** 	while(0u != (CY_GET_REG8((void CYXDATA *)CYREG_PHUB_CH0_BASIC_STATUS) & 0x01u)){}
 692              		.loc 1 570 0
 693 00b8 00BF     		nop
 694              	.L10:
 695              		.loc 1 570 0 is_stmt 0 discriminator 1
 696 00ba 2B4B     		ldr	r3, .L15+76
 697 00bc 1B78     		ldrb	r3, [r3]
 698 00be DBB2     		uxtb	r3, r3
 699 00c0 03F00103 		and	r3, r3, #1
 700 00c4 002B     		cmp	r3, #0
 701 00c6 F8D1     		bne	.L10
 571:Generated_Source\PSoC5/cyfitter_cfg.c **** 	while(0u != (CY_GET_REG8((void CYXDATA *)CYREG_PHUB_CH1_BASIC_STATUS) & 0x01u)){}
 702              		.loc 1 571 0 is_stmt 1
 703 00c8 00BF     		nop
 704              	.L11:
 705              		.loc 1 571 0 is_stmt 0 discriminator 1
 706 00ca 284B     		ldr	r3, .L15+80
 707 00cc 1B78     		ldrb	r3, [r3]
 708 00ce DBB2     		uxtb	r3, r3
 709 00d0 03F00103 		and	r3, r3, #1
 710 00d4 002B     		cmp	r3, #0
 711 00d6 F8D1     		bne	.L11
 572:Generated_Source\PSoC5/cyfitter_cfg.c **** 	while(0u != (CY_GET_REG8((void CYXDATA *)CYREG_PHUB_CH2_BASIC_STATUS) & 0x01u)){}
 712              		.loc 1 572 0 is_stmt 1
 713 00d8 00BF     		nop
 714              	.L12:
 715              		.loc 1 572 0 is_stmt 0 discriminator 1
 716 00da 254B     		ldr	r3, .L15+84
 717 00dc 1B78     		ldrb	r3, [r3]
 718 00de DBB2     		uxtb	r3, r3
 719 00e0 03F00103 		and	r3, r3, #1
 720 00e4 002B     		cmp	r3, #0
 721 00e6 F8D1     		bne	.L12
 573:Generated_Source\PSoC5/cyfitter_cfg.c **** 	while(0u != (CY_GET_REG8((void CYXDATA *)CYREG_PHUB_CH5_BASIC_STATUS) & 0x01u)){}
 722              		.loc 1 573 0 is_stmt 1
 723 00e8 00BF     		nop
 724              	.L13:
 725              		.loc 1 573 0 is_stmt 0 discriminator 1
 726 00ea 224B     		ldr	r3, .L15+88
 727 00ec 1B78     		ldrb	r3, [r3]
 728 00ee DBB2     		uxtb	r3, r3
 729 00f0 03F00103 		and	r3, r3, #1
 730 00f4 002B     		cmp	r3, #0
 731 00f6 F8D1     		bne	.L13
 574:Generated_Source\PSoC5/cyfitter_cfg.c **** 	while(0u != (CY_GET_REG8((void CYXDATA *)CYREG_PHUB_CH6_BASIC_STATUS) & 0x01u)){}
 732              		.loc 1 574 0 is_stmt 1
 733 00f8 00BF     		nop
 734              	.L14:
 735              		.loc 1 574 0 is_stmt 0 discriminator 1
ARM GAS  C:\Users\rcaravac\AppData\Local\Temp\ccy3g4oq.s 			page 24


 736 00fa 1F4B     		ldr	r3, .L15+92
 737 00fc 1B78     		ldrb	r3, [r3]
 738 00fe DBB2     		uxtb	r3, r3
 739 0100 03F00103 		and	r3, r3, #1
 740 0104 002B     		cmp	r3, #0
 741 0106 F8D1     		bne	.L14
 575:Generated_Source\PSoC5/cyfitter_cfg.c **** 
 576:Generated_Source\PSoC5/cyfitter_cfg.c **** 
 577:Generated_Source\PSoC5/cyfitter_cfg.c **** 	CYCONFIGCPY((void CYFAR *)(CYREG_IDMUX_DRQ_CTL0), (const void CYFAR *)(BS_IDMUX_VAL), 6u);
 742              		.loc 1 577 0 is_stmt 1
 743 0108 0622     		movs	r2, #6
 744 010a 4FF09041 		mov	r1, #1207959552
 745 010e 1B48     		ldr	r0, .L15+96
 746 0110 FFF7FEFF 		bl	CYCONFIGCPY
 578:Generated_Source\PSoC5/cyfitter_cfg.c **** 
 579:Generated_Source\PSoC5/cyfitter_cfg.c **** }
 747              		.loc 1 579 0
 748 0114 00BF     		nop
 749 0116 0837     		adds	r7, r7, #8
 750              		.cfi_def_cfa_offset 8
 751 0118 BD46     		mov	sp, r7
 752              		.cfi_def_cfa_register 13
 753              		@ sp needed
 754 011a 80BD     		pop	{r7, pc}
 755              	.L16:
 756              		.align	2
 757              	.L15:
 758 011c 00000000 		.word	DMA_ZERO_VAL.4977
 759 0120 00760040 		.word	1073772032
 760 0124 10700040 		.word	1073770512
 761 0128 19700040 		.word	1073770521
 762 012c 00780040 		.word	1073772544
 763 0130 02780040 		.word	1073772546
 764 0134 03780040 		.word	1073772547
 765 0138 04780040 		.word	1073772548
 766 013c 28000000 		.word	CFG_TD_LIST0.4978
 767 0140 06780040 		.word	1073772550
 768 0144 04760040 		.word	1073772036
 769 0148 06760040 		.word	1073772038
 770 014c 29700040 		.word	1073770537
 771 0150 39700040 		.word	1073770553
 772 0154 69700040 		.word	1073770601
 773 0158 79700040 		.word	1073770617
 774 015c 14700040 		.word	1073770516
 775 0160 0C780040 		.word	1073772556
 776 0164 0C000000 		.word	CFG_TD_ADDR0.4979
 777 0168 18700040 		.word	1073770520
 778 016c 28700040 		.word	1073770536
 779 0170 38700040 		.word	1073770552
 780 0174 68700040 		.word	1073770600
 781 0178 78700040 		.word	1073770616
 782 017c 10510140 		.word	1073828112
 783              		.cfi_endproc
 784              	.LFE4:
 785              		.size	cfg_dma_init, .-cfg_dma_init
 786              		.section	.text.ClockSetup,"ax",%progbits
 787              		.align	2
ARM GAS  C:\Users\rcaravac\AppData\Local\Temp\ccy3g4oq.s 			page 25


 788              		.thumb
 789              		.thumb_func
 790              		.type	ClockSetup, %function
 791              	ClockSetup:
 792              	.LFB5:
 580:Generated_Source\PSoC5/cyfitter_cfg.c **** /*******************************************************************************
 581:Generated_Source\PSoC5/cyfitter_cfg.c **** * Function Name: ClockSetup
 582:Generated_Source\PSoC5/cyfitter_cfg.c **** ********************************************************************************
 583:Generated_Source\PSoC5/cyfitter_cfg.c **** *
 584:Generated_Source\PSoC5/cyfitter_cfg.c **** * Summary:
 585:Generated_Source\PSoC5/cyfitter_cfg.c **** *  Performs the initialization of all of the clocks in the device based on the
 586:Generated_Source\PSoC5/cyfitter_cfg.c **** *  settings in the Clock tab of the DWR.  This includes enabling the requested
 587:Generated_Source\PSoC5/cyfitter_cfg.c **** *  clocks and setting the necessary dividers to produce the desired frequency. 
 588:Generated_Source\PSoC5/cyfitter_cfg.c **** *
 589:Generated_Source\PSoC5/cyfitter_cfg.c **** * Parameters:
 590:Generated_Source\PSoC5/cyfitter_cfg.c **** *  void
 591:Generated_Source\PSoC5/cyfitter_cfg.c **** *
 592:Generated_Source\PSoC5/cyfitter_cfg.c **** * Return:
 593:Generated_Source\PSoC5/cyfitter_cfg.c **** *  void
 594:Generated_Source\PSoC5/cyfitter_cfg.c **** *
 595:Generated_Source\PSoC5/cyfitter_cfg.c **** *******************************************************************************/
 596:Generated_Source\PSoC5/cyfitter_cfg.c **** static void ClockSetup(void);
 597:Generated_Source\PSoC5/cyfitter_cfg.c **** static void ClockSetup(void)
 598:Generated_Source\PSoC5/cyfitter_cfg.c **** {
 793              		.loc 1 598 0
 794              		.cfi_startproc
 795              		@ args = 0, pretend = 0, frame = 8
 796              		@ frame_needed = 1, uses_anonymous_args = 0
 797 0000 80B5     		push	{r7, lr}
 798              		.cfi_def_cfa_offset 8
 799              		.cfi_offset 7, -8
 800              		.cfi_offset 14, -4
 801 0002 82B0     		sub	sp, sp, #8
 802              		.cfi_def_cfa_offset 16
 803 0004 00AF     		add	r7, sp, #0
 804              		.cfi_def_cfa_register 7
 599:Generated_Source\PSoC5/cyfitter_cfg.c **** 	uint32 timeout;
 600:Generated_Source\PSoC5/cyfitter_cfg.c **** 	uint8 pllLock;
 601:Generated_Source\PSoC5/cyfitter_cfg.c **** 
 602:Generated_Source\PSoC5/cyfitter_cfg.c **** 
 603:Generated_Source\PSoC5/cyfitter_cfg.c **** 	/* Configure Digital Clocks based on settings from Clock DWR */
 604:Generated_Source\PSoC5/cyfitter_cfg.c **** 	CY_SET_XTND_REG16((void CYFAR *)(CYREG_CLKDIST_DCFG0_CFG0), 0x0000u);
 805              		.loc 1 604 0
 806 0006 484B     		ldr	r3, .L22
 807 0008 0022     		movs	r2, #0
 808 000a 1A80     		strh	r2, [r3]	@ movhi
 605:Generated_Source\PSoC5/cyfitter_cfg.c **** 	CY_SET_XTND_REG8((void CYFAR *)(CYREG_CLKDIST_DCFG0_CFG0 + 0x2u), 0x50u);
 809              		.loc 1 605 0
 810 000c 474B     		ldr	r3, .L22+4
 811 000e 5022     		movs	r2, #80
 812 0010 1A70     		strb	r2, [r3]
 606:Generated_Source\PSoC5/cyfitter_cfg.c **** 	CY_SET_XTND_REG16((void CYFAR *)(CYREG_CLKDIST_DCFG1_CFG0), 0x0220u);
 813              		.loc 1 606 0
 814 0012 474B     		ldr	r3, .L22+8
 815 0014 4FF40872 		mov	r2, #544
 816 0018 1A80     		strh	r2, [r3]	@ movhi
 607:Generated_Source\PSoC5/cyfitter_cfg.c **** 	CY_SET_XTND_REG8((void CYFAR *)(CYREG_CLKDIST_DCFG1_CFG0 + 0x2u), 0x18u);
ARM GAS  C:\Users\rcaravac\AppData\Local\Temp\ccy3g4oq.s 			page 26


 817              		.loc 1 607 0
 818 001a 464B     		ldr	r3, .L22+12
 819 001c 1822     		movs	r2, #24
 820 001e 1A70     		strb	r2, [r3]
 608:Generated_Source\PSoC5/cyfitter_cfg.c **** 	CY_SET_XTND_REG16((void CYFAR *)(CYREG_CLKDIST_DCFG2_CFG0), 0x0017u);
 821              		.loc 1 608 0
 822 0020 454B     		ldr	r3, .L22+16
 823 0022 1722     		movs	r2, #23
 824 0024 1A80     		strh	r2, [r3]	@ movhi
 609:Generated_Source\PSoC5/cyfitter_cfg.c **** 	CY_SET_XTND_REG8((void CYFAR *)(CYREG_CLKDIST_DCFG2_CFG0 + 0x2u), 0x18u);
 825              		.loc 1 609 0
 826 0026 454B     		ldr	r3, .L22+20
 827 0028 1822     		movs	r2, #24
 828 002a 1A70     		strb	r2, [r3]
 610:Generated_Source\PSoC5/cyfitter_cfg.c **** 	CY_SET_XTND_REG16((void CYFAR *)(CYREG_CLKDIST_DCFG3_CFG0), 0x0017u);
 829              		.loc 1 610 0
 830 002c 444B     		ldr	r3, .L22+24
 831 002e 1722     		movs	r2, #23
 832 0030 1A80     		strh	r2, [r3]	@ movhi
 611:Generated_Source\PSoC5/cyfitter_cfg.c **** 	CY_SET_XTND_REG8((void CYFAR *)(CYREG_CLKDIST_DCFG3_CFG0 + 0x2u), 0x18u);
 833              		.loc 1 611 0
 834 0032 444B     		ldr	r3, .L22+28
 835 0034 1822     		movs	r2, #24
 836 0036 1A70     		strb	r2, [r3]
 612:Generated_Source\PSoC5/cyfitter_cfg.c **** 	CY_SET_XTND_REG16((void CYFAR *)(CYREG_CLKDIST_DCFG4_CFG0), 0x0019u);
 837              		.loc 1 612 0
 838 0038 434B     		ldr	r3, .L22+32
 839 003a 1922     		movs	r2, #25
 840 003c 1A80     		strh	r2, [r3]	@ movhi
 613:Generated_Source\PSoC5/cyfitter_cfg.c **** 	CY_SET_XTND_REG8((void CYFAR *)(CYREG_CLKDIST_DCFG4_CFG0 + 0x2u), 0x18u);
 841              		.loc 1 613 0
 842 003e 434B     		ldr	r3, .L22+36
 843 0040 1822     		movs	r2, #24
 844 0042 1A70     		strb	r2, [r3]
 614:Generated_Source\PSoC5/cyfitter_cfg.c **** 
 615:Generated_Source\PSoC5/cyfitter_cfg.c **** 	/* Configure Analog Clocks based on settings from Clock DWR */
 616:Generated_Source\PSoC5/cyfitter_cfg.c **** 	CYCONFIGCPY((void CYFAR *)(CYREG_CLKDIST_ACFG0_CFG0), (const void CYFAR *)(BS_CYDEV_CLKDIST_ACFG0_
 845              		.loc 1 616 0
 846 0044 0422     		movs	r2, #4
 847 0046 4249     		ldr	r1, .L22+40
 848 0048 4248     		ldr	r0, .L22+44
 849 004a FFF7FEFF 		bl	CYCONFIGCPY
 617:Generated_Source\PSoC5/cyfitter_cfg.c **** 
 618:Generated_Source\PSoC5/cyfitter_cfg.c **** 	/* Configure ILO based on settings from Clock DWR */
 619:Generated_Source\PSoC5/cyfitter_cfg.c **** 	CY_SET_XTND_REG8((void CYFAR *)(CYREG_SLOWCLK_ILO_CR0), 0x02u);
 850              		.loc 1 619 0
 851 004e 424B     		ldr	r3, .L22+48
 852 0050 0222     		movs	r2, #2
 853 0052 1A70     		strb	r2, [r3]
 620:Generated_Source\PSoC5/cyfitter_cfg.c **** 	CY_SET_XTND_REG8((void CYFAR *)(CYREG_CLKDIST_CR), 0x08u);
 854              		.loc 1 620 0
 855 0054 4FF04023 		mov	r3, #1073758208
 856 0058 0822     		movs	r2, #8
 857 005a 1A70     		strb	r2, [r3]
 621:Generated_Source\PSoC5/cyfitter_cfg.c **** 
 622:Generated_Source\PSoC5/cyfitter_cfg.c **** 	/* Configure IMO based on settings from Clock DWR */
 623:Generated_Source\PSoC5/cyfitter_cfg.c **** 	CY_SET_XTND_REG8((void CYFAR *)(CYREG_FASTCLK_IMO_CR), 0x03u);
ARM GAS  C:\Users\rcaravac\AppData\Local\Temp\ccy3g4oq.s 			page 27


 858              		.loc 1 623 0
 859 005c 3F4B     		ldr	r3, .L22+52
 860 005e 0322     		movs	r2, #3
 861 0060 1A70     		strb	r2, [r3]
 624:Generated_Source\PSoC5/cyfitter_cfg.c **** 	CY_SET_XTND_REG8((void CYFAR *)(CYREG_IMO_TR1), (CY_GET_XTND_REG8((void CYFAR *)CYREG_FLSHID_CUST_
 862              		.loc 1 624 0
 863 0062 3F4B     		ldr	r3, .L22+56
 864 0064 3F4A     		ldr	r2, .L22+60
 865 0066 1278     		ldrb	r2, [r2]
 866 0068 D2B2     		uxtb	r2, r2
 867 006a 1A70     		strb	r2, [r3]
 625:Generated_Source\PSoC5/cyfitter_cfg.c **** 
 626:Generated_Source\PSoC5/cyfitter_cfg.c **** 	/* Configure PLL based on settings from Clock DWR */
 627:Generated_Source\PSoC5/cyfitter_cfg.c **** 	CY_SET_XTND_REG16((void CYFAR *)(CYREG_FASTCLK_PLL_P), 0x0008u);
 868              		.loc 1 627 0
 869 006c 3E4B     		ldr	r3, .L22+64
 870 006e 0822     		movs	r2, #8
 871 0070 1A80     		strh	r2, [r3]	@ movhi
 628:Generated_Source\PSoC5/cyfitter_cfg.c **** 	CY_SET_XTND_REG16((void CYFAR *)(CYREG_FASTCLK_PLL_CFG0), 0x1251u);
 872              		.loc 1 628 0
 873 0072 3E4B     		ldr	r3, .L22+68
 874 0074 41F25122 		movw	r2, #4689
 875 0078 1A80     		strh	r2, [r3]	@ movhi
 629:Generated_Source\PSoC5/cyfitter_cfg.c **** 	/* Wait up to 250us for the PLL to lock */
 630:Generated_Source\PSoC5/cyfitter_cfg.c **** 	pllLock = 0u;
 876              		.loc 1 630 0
 877 007a 0023     		movs	r3, #0
 878 007c FB70     		strb	r3, [r7, #3]
 631:Generated_Source\PSoC5/cyfitter_cfg.c **** 	for (timeout = 250u / 10u; (timeout > 0u) && (pllLock != 0x03u); timeout--)
 879              		.loc 1 631 0
 880 007e 1923     		movs	r3, #25
 881 0080 7B60     		str	r3, [r7, #4]
 882 0082 13E0     		b	.L18
 883              	.L20:
 632:Generated_Source\PSoC5/cyfitter_cfg.c **** 	{ 
 633:Generated_Source\PSoC5/cyfitter_cfg.c **** 		pllLock = 0x03u & ((uint8)((uint8)pllLock << 1) | ((CY_GET_XTND_REG8((void CYFAR *)CYREG_FASTCLK_
 884              		.loc 1 633 0 discriminator 4
 885 0084 FB78     		ldrb	r3, [r7, #3]
 886 0086 5B00     		lsls	r3, r3, #1
 887 0088 DAB2     		uxtb	r2, r3
 888 008a 394B     		ldr	r3, .L22+72
 889 008c 1B78     		ldrb	r3, [r3]
 890 008e DBB2     		uxtb	r3, r3
 891 0090 03F00103 		and	r3, r3, #1
 892 0094 DBB2     		uxtb	r3, r3
 893 0096 1343     		orrs	r3, r3, r2
 894 0098 DBB2     		uxtb	r3, r3
 895 009a 03F00303 		and	r3, r3, #3
 896 009e FB70     		strb	r3, [r7, #3]
 634:Generated_Source\PSoC5/cyfitter_cfg.c **** 		CyDelayCycles(10u * 12u); /* Delay 10us based on 12MHz clock */
 897              		.loc 1 634 0 discriminator 4
 898 00a0 7820     		movs	r0, #120
 899 00a2 FFF7FEFF 		bl	CyDelayCycles
 631:Generated_Source\PSoC5/cyfitter_cfg.c **** 	for (timeout = 250u / 10u; (timeout > 0u) && (pllLock != 0x03u); timeout--)
 900              		.loc 1 631 0 discriminator 4
 901 00a6 7B68     		ldr	r3, [r7, #4]
 902 00a8 013B     		subs	r3, r3, #1
ARM GAS  C:\Users\rcaravac\AppData\Local\Temp\ccy3g4oq.s 			page 28


 903 00aa 7B60     		str	r3, [r7, #4]
 904              	.L18:
 631:Generated_Source\PSoC5/cyfitter_cfg.c **** 	for (timeout = 250u / 10u; (timeout > 0u) && (pllLock != 0x03u); timeout--)
 905              		.loc 1 631 0 is_stmt 0 discriminator 1
 906 00ac 7B68     		ldr	r3, [r7, #4]
 907 00ae 002B     		cmp	r3, #0
 908 00b0 02D0     		beq	.L19
 631:Generated_Source\PSoC5/cyfitter_cfg.c **** 	for (timeout = 250u / 10u; (timeout > 0u) && (pllLock != 0x03u); timeout--)
 909              		.loc 1 631 0 discriminator 3
 910 00b2 FB78     		ldrb	r3, [r7, #3]	@ zero_extendqisi2
 911 00b4 032B     		cmp	r3, #3
 912 00b6 E5D1     		bne	.L20
 913              	.L19:
 635:Generated_Source\PSoC5/cyfitter_cfg.c **** 	}
 636:Generated_Source\PSoC5/cyfitter_cfg.c **** 	/* If we ran out of time the PLL didn't lock so go to the error function */
 637:Generated_Source\PSoC5/cyfitter_cfg.c **** 	if (timeout == 0u)
 914              		.loc 1 637 0 is_stmt 1
 915 00b8 7B68     		ldr	r3, [r7, #4]
 916 00ba 002B     		cmp	r3, #0
 917 00bc 02D1     		bne	.L21
 638:Generated_Source\PSoC5/cyfitter_cfg.c **** 	{
 639:Generated_Source\PSoC5/cyfitter_cfg.c **** 		CyClockStartupError(CYCLOCKSTART_PLL_ERROR);
 918              		.loc 1 639 0
 919 00be 0320     		movs	r0, #3
 920 00c0 FFF7FEFF 		bl	CyClockStartupError
 921              	.L21:
 640:Generated_Source\PSoC5/cyfitter_cfg.c **** 	}
 641:Generated_Source\PSoC5/cyfitter_cfg.c **** 
 642:Generated_Source\PSoC5/cyfitter_cfg.c **** 	/* Configure Bus/Master Clock based on settings from Clock DWR */
 643:Generated_Source\PSoC5/cyfitter_cfg.c **** 	CY_SET_XTND_REG16((void CYFAR *)(CYREG_CLKDIST_MSTR0), 0x0100u);
 922              		.loc 1 643 0
 923 00c4 2B4B     		ldr	r3, .L22+76
 924 00c6 4FF48072 		mov	r2, #256
 925 00ca 1A80     		strh	r2, [r3]	@ movhi
 644:Generated_Source\PSoC5/cyfitter_cfg.c **** 	CY_SET_XTND_REG8((void CYFAR *)(CYREG_CLKDIST_MSTR0), 0x07u);
 926              		.loc 1 644 0
 927 00cc 294B     		ldr	r3, .L22+76
 928 00ce 0722     		movs	r2, #7
 929 00d0 1A70     		strb	r2, [r3]
 645:Generated_Source\PSoC5/cyfitter_cfg.c **** 	CY_SET_XTND_REG8((void CYFAR *)(CYREG_CLKDIST_BCFG0), 0x00u);
 930              		.loc 1 645 0
 931 00d2 294B     		ldr	r3, .L22+80
 932 00d4 0022     		movs	r2, #0
 933 00d6 1A70     		strb	r2, [r3]
 646:Generated_Source\PSoC5/cyfitter_cfg.c **** 	CY_SET_XTND_REG8((void CYFAR *)(CYREG_CLKDIST_BCFG2), 0x48u);
 934              		.loc 1 646 0
 935 00d8 284B     		ldr	r3, .L22+84
 936 00da 4822     		movs	r2, #72
 937 00dc 1A70     		strb	r2, [r3]
 647:Generated_Source\PSoC5/cyfitter_cfg.c **** 	CY_SET_XTND_REG8((void CYFAR *)(CYREG_CLKDIST_MSTR0), 0x00u);
 938              		.loc 1 647 0
 939 00de 254B     		ldr	r3, .L22+76
 940 00e0 0022     		movs	r2, #0
 941 00e2 1A70     		strb	r2, [r3]
 648:Generated_Source\PSoC5/cyfitter_cfg.c **** 	CY_SET_XTND_REG8((void CYFAR *)(CYREG_CLKDIST_LD), 0x02u);
 942              		.loc 1 648 0
 943 00e4 264B     		ldr	r3, .L22+88
ARM GAS  C:\Users\rcaravac\AppData\Local\Temp\ccy3g4oq.s 			page 29


 944 00e6 0222     		movs	r2, #2
 945 00e8 1A70     		strb	r2, [r3]
 649:Generated_Source\PSoC5/cyfitter_cfg.c **** 	CY_SET_XTND_REG8((void CYFAR *)(CYREG_CLKDIST_DLY1), 0x04u);
 946              		.loc 1 649 0
 947 00ea 264B     		ldr	r3, .L22+92
 948 00ec 0422     		movs	r2, #4
 949 00ee 1A70     		strb	r2, [r3]
 650:Generated_Source\PSoC5/cyfitter_cfg.c **** 
 651:Generated_Source\PSoC5/cyfitter_cfg.c **** 	CY_SET_XTND_REG8((void CYFAR *)(CYREG_PM_ACT_CFG2), ((CY_GET_XTND_REG8((void CYFAR *)CYREG_PM_ACT_
 950              		.loc 1 651 0
 951 00f0 254A     		ldr	r2, .L22+96
 952 00f2 254B     		ldr	r3, .L22+96
 953 00f4 1B78     		ldrb	r3, [r3]
 954 00f6 DBB2     		uxtb	r3, r3
 955 00f8 43F01F03 		orr	r3, r3, #31
 956 00fc DBB2     		uxtb	r3, r3
 957 00fe 1370     		strb	r3, [r2]
 652:Generated_Source\PSoC5/cyfitter_cfg.c **** 	CY_SET_XTND_REG8((void CYFAR *)(CYREG_PM_ACT_CFG1), ((CY_GET_XTND_REG8((void CYFAR *)CYREG_PM_ACT_
 958              		.loc 1 652 0
 959 0100 224A     		ldr	r2, .L22+100
 960 0102 224B     		ldr	r3, .L22+100
 961 0104 1B78     		ldrb	r3, [r3]
 962 0106 DBB2     		uxtb	r3, r3
 963 0108 43F00103 		orr	r3, r3, #1
 964 010c DBB2     		uxtb	r3, r3
 965 010e 1370     		strb	r3, [r2]
 653:Generated_Source\PSoC5/cyfitter_cfg.c **** 	CY_SET_XTND_REG8((void CYFAR *)(CYREG_PM_ACT_CFG0), ((CY_GET_XTND_REG8((void CYFAR *)CYREG_PM_ACT_
 966              		.loc 1 653 0
 967 0110 1F4A     		ldr	r2, .L22+104
 968 0112 1F4B     		ldr	r3, .L22+104
 969 0114 1B78     		ldrb	r3, [r3]
 970 0116 DBB2     		uxtb	r3, r3
 971 0118 63F07F03 		orn	r3, r3, #127
 972 011c DBB2     		uxtb	r3, r3
 973 011e 1370     		strb	r3, [r2]
 654:Generated_Source\PSoC5/cyfitter_cfg.c **** }
 974              		.loc 1 654 0
 975 0120 00BF     		nop
 976 0122 0837     		adds	r7, r7, #8
 977              		.cfi_def_cfa_offset 8
 978 0124 BD46     		mov	sp, r7
 979              		.cfi_def_cfa_register 13
 980              		@ sp needed
 981 0126 80BD     		pop	{r7, pc}
 982              	.L23:
 983              		.align	2
 984              	.L22:
 985 0128 80400040 		.word	1073758336
 986 012c 82400040 		.word	1073758338
 987 0130 84400040 		.word	1073758340
 988 0134 86400040 		.word	1073758342
 989 0138 88400040 		.word	1073758344
 990 013c 8A400040 		.word	1073758346
 991 0140 8C400040 		.word	1073758348
 992 0144 8E400040 		.word	1073758350
 993 0148 90400040 		.word	1073758352
 994 014c 92400040 		.word	1073758354
ARM GAS  C:\Users\rcaravac\AppData\Local\Temp\ccy3g4oq.s 			page 30


 995 0150 BC130048 		.word	1207964604
 996 0154 00410040 		.word	1073758464
 997 0158 00430040 		.word	1073758976
 998 015c 00420040 		.word	1073758720
 999 0160 A1460040 		.word	1073759905
 1000 0164 08010049 		.word	1224737032
 1001 0168 22420040 		.word	1073758754
 1002 016c 20420040 		.word	1073758752
 1003 0170 25420040 		.word	1073758757
 1004 0174 04400040 		.word	1073758212
 1005 0178 06400040 		.word	1073758214
 1006 017c 08400040 		.word	1073758216
 1007 0180 01400040 		.word	1073758209
 1008 0184 0B400040 		.word	1073758219
 1009 0188 A2430040 		.word	1073759138
 1010 018c A1430040 		.word	1073759137
 1011 0190 A0430040 		.word	1073759136
 1012              		.cfi_endproc
 1013              	.LFE5:
 1014              		.size	ClockSetup, .-ClockSetup
 1015              		.section	.text.AnalogSetDefault,"ax",%progbits
 1016              		.align	2
 1017              		.thumb
 1018              		.thumb_func
 1019              		.type	AnalogSetDefault, %function
 1020              	AnalogSetDefault:
 1021              	.LFB6:
 655:Generated_Source\PSoC5/cyfitter_cfg.c **** 
 656:Generated_Source\PSoC5/cyfitter_cfg.c **** 
 657:Generated_Source\PSoC5/cyfitter_cfg.c **** /* Analog API Functions */
 658:Generated_Source\PSoC5/cyfitter_cfg.c **** 
 659:Generated_Source\PSoC5/cyfitter_cfg.c **** 
 660:Generated_Source\PSoC5/cyfitter_cfg.c **** /*******************************************************************************
 661:Generated_Source\PSoC5/cyfitter_cfg.c **** * Function Name: AnalogSetDefault
 662:Generated_Source\PSoC5/cyfitter_cfg.c **** ********************************************************************************
 663:Generated_Source\PSoC5/cyfitter_cfg.c **** *
 664:Generated_Source\PSoC5/cyfitter_cfg.c **** * Summary:
 665:Generated_Source\PSoC5/cyfitter_cfg.c **** *  Sets up the analog portions of the chip to default values based on chip
 666:Generated_Source\PSoC5/cyfitter_cfg.c **** *  configuration options from the project.
 667:Generated_Source\PSoC5/cyfitter_cfg.c **** *
 668:Generated_Source\PSoC5/cyfitter_cfg.c **** * Parameters:
 669:Generated_Source\PSoC5/cyfitter_cfg.c **** *  void
 670:Generated_Source\PSoC5/cyfitter_cfg.c **** *
 671:Generated_Source\PSoC5/cyfitter_cfg.c **** * Return:
 672:Generated_Source\PSoC5/cyfitter_cfg.c **** *  void
 673:Generated_Source\PSoC5/cyfitter_cfg.c **** *
 674:Generated_Source\PSoC5/cyfitter_cfg.c **** *******************************************************************************/
 675:Generated_Source\PSoC5/cyfitter_cfg.c **** static void AnalogSetDefault(void);
 676:Generated_Source\PSoC5/cyfitter_cfg.c **** static void AnalogSetDefault(void)
 677:Generated_Source\PSoC5/cyfitter_cfg.c **** {
 1022              		.loc 1 677 0
 1023              		.cfi_startproc
 1024              		@ args = 0, pretend = 0, frame = 8
 1025              		@ frame_needed = 1, uses_anonymous_args = 0
 1026              		@ link register save eliminated.
 1027 0000 80B4     		push	{r7}
 1028              		.cfi_def_cfa_offset 4
ARM GAS  C:\Users\rcaravac\AppData\Local\Temp\ccy3g4oq.s 			page 31


 1029              		.cfi_offset 7, -4
 1030 0002 83B0     		sub	sp, sp, #12
 1031              		.cfi_def_cfa_offset 16
 1032 0004 00AF     		add	r7, sp, #0
 1033              		.cfi_def_cfa_register 7
 678:Generated_Source\PSoC5/cyfitter_cfg.c **** 	uint8 bg_xover_inl_trim = CY_GET_XTND_REG8((void CYFAR *)(CYREG_FLSHID_MFG_CFG_BG_XOVER_INL_TRIM +
 1034              		.loc 1 678 0
 1035 0006 124B     		ldr	r3, .L25
 1036 0008 1B78     		ldrb	r3, [r3]
 1037 000a FB71     		strb	r3, [r7, #7]
 679:Generated_Source\PSoC5/cyfitter_cfg.c **** 	CY_SET_XTND_REG8((void CYFAR *)(CYREG_BG_DFT0), (bg_xover_inl_trim & 0x07u));
 1038              		.loc 1 679 0
 1039 000c 114A     		ldr	r2, .L25+4
 1040 000e FB79     		ldrb	r3, [r7, #7]
 1041 0010 03F00703 		and	r3, r3, #7
 1042 0014 DBB2     		uxtb	r3, r3
 1043 0016 1370     		strb	r3, [r2]
 680:Generated_Source\PSoC5/cyfitter_cfg.c **** 	CY_SET_XTND_REG8((void CYFAR *)(CYREG_BG_DFT1), ((bg_xover_inl_trim >> 4) & 0x0Fu));
 1044              		.loc 1 680 0
 1045 0018 0F4A     		ldr	r2, .L25+8
 1046 001a FB79     		ldrb	r3, [r7, #7]	@ zero_extendqisi2
 1047 001c 1B09     		lsrs	r3, r3, #4
 1048 001e DBB2     		uxtb	r3, r3
 1049 0020 1370     		strb	r3, [r2]
 681:Generated_Source\PSoC5/cyfitter_cfg.c **** 	CY_SET_XTND_REG8((void CYFAR *)CYREG_PRT0_AG, 0x03u);
 1050              		.loc 1 681 0
 1051 0022 0E4B     		ldr	r3, .L25+12
 1052 0024 0322     		movs	r2, #3
 1053 0026 1A70     		strb	r2, [r3]
 682:Generated_Source\PSoC5/cyfitter_cfg.c **** 	CY_SET_XTND_REG8((void CYFAR *)CYREG_PRT1_AMUX, 0x80u);
 1054              		.loc 1 682 0
 1055 0028 0D4B     		ldr	r3, .L25+16
 1056 002a 8022     		movs	r2, #128
 1057 002c 1A70     		strb	r2, [r3]
 683:Generated_Source\PSoC5/cyfitter_cfg.c **** 	CY_SET_XTND_REG8((void CYFAR *)CYREG_DAC1_SW3, 0x01u);
 1058              		.loc 1 683 0
 1059 002e 0D4B     		ldr	r3, .L25+20
 1060 0030 0122     		movs	r2, #1
 1061 0032 1A70     		strb	r2, [r3]
 684:Generated_Source\PSoC5/cyfitter_cfg.c **** 	CY_SET_XTND_REG8((void CYFAR *)CYREG_DAC2_SW0, 0x20u);
 1062              		.loc 1 684 0
 1063 0034 0C4B     		ldr	r3, .L25+24
 1064 0036 2022     		movs	r2, #32
 1065 0038 1A70     		strb	r2, [r3]
 685:Generated_Source\PSoC5/cyfitter_cfg.c **** 	CY_SET_XTND_REG8((void CYFAR *)CYREG_DSM0_SW0, 0x10u);
 1066              		.loc 1 685 0
 1067 003a 0C4B     		ldr	r3, .L25+28
 1068 003c 1022     		movs	r2, #16
 1069 003e 1A70     		strb	r2, [r3]
 686:Generated_Source\PSoC5/cyfitter_cfg.c **** 	CY_SET_XTND_REG8((void CYFAR *)CYREG_PUMP_CR0, 0x44u);
 1070              		.loc 1 686 0
 1071 0040 0B4B     		ldr	r3, .L25+32
 1072 0042 4422     		movs	r2, #68
 1073 0044 1A70     		strb	r2, [r3]
 687:Generated_Source\PSoC5/cyfitter_cfg.c **** }
 1074              		.loc 1 687 0
 1075 0046 00BF     		nop
ARM GAS  C:\Users\rcaravac\AppData\Local\Temp\ccy3g4oq.s 			page 32


 1076 0048 0C37     		adds	r7, r7, #12
 1077              		.cfi_def_cfa_offset 4
 1078 004a BD46     		mov	sp, r7
 1079              		.cfi_def_cfa_register 13
 1080              		@ sp needed
 1081 004c 80BC     		pop	{r7}
 1082              		.cfi_restore 7
 1083              		.cfi_def_cfa_offset 0
 1084 004e 7047     		bx	lr
 1085              	.L26:
 1086              		.align	2
 1087              	.L25:
 1088 0050 CF010049 		.word	1224737231
 1089 0054 6E580040 		.word	1073764462
 1090 0058 6F580040 		.word	1073764463
 1091 005c 0D510040 		.word	1073762573
 1092 0060 1C510040 		.word	1073762588
 1093 0064 8B5A0040 		.word	1073765003
 1094 0068 905A0040 		.word	1073765008
 1095 006c 005B0040 		.word	1073765120
 1096 0070 76580040 		.word	1073764470
 1097              		.cfi_endproc
 1098              	.LFE6:
 1099              		.size	AnalogSetDefault, .-AnalogSetDefault
 1100              		.section	.text.SetAnalogRoutingPumps,"ax",%progbits
 1101              		.align	2
 1102              		.global	SetAnalogRoutingPumps
 1103              		.thumb
 1104              		.thumb_func
 1105              		.type	SetAnalogRoutingPumps, %function
 1106              	SetAnalogRoutingPumps:
 1107              	.LFB7:
 688:Generated_Source\PSoC5/cyfitter_cfg.c **** 
 689:Generated_Source\PSoC5/cyfitter_cfg.c **** 
 690:Generated_Source\PSoC5/cyfitter_cfg.c **** /*******************************************************************************
 691:Generated_Source\PSoC5/cyfitter_cfg.c **** * Function Name: SetAnalogRoutingPumps
 692:Generated_Source\PSoC5/cyfitter_cfg.c **** ********************************************************************************
 693:Generated_Source\PSoC5/cyfitter_cfg.c **** *
 694:Generated_Source\PSoC5/cyfitter_cfg.c **** * Summary:
 695:Generated_Source\PSoC5/cyfitter_cfg.c **** * Enables or disables the analog pumps feeding analog routing switches.
 696:Generated_Source\PSoC5/cyfitter_cfg.c **** * Intended to be called at startup, based on the Vdda system configuration;
 697:Generated_Source\PSoC5/cyfitter_cfg.c **** * may be called during operation when the user informs us that the Vdda voltage
 698:Generated_Source\PSoC5/cyfitter_cfg.c **** * crossed the pump threshold.
 699:Generated_Source\PSoC5/cyfitter_cfg.c **** *
 700:Generated_Source\PSoC5/cyfitter_cfg.c **** * Parameters:
 701:Generated_Source\PSoC5/cyfitter_cfg.c **** *  enabled - 1 to enable the pumps, 0 to disable the pumps
 702:Generated_Source\PSoC5/cyfitter_cfg.c **** *
 703:Generated_Source\PSoC5/cyfitter_cfg.c **** * Return:
 704:Generated_Source\PSoC5/cyfitter_cfg.c **** *  void
 705:Generated_Source\PSoC5/cyfitter_cfg.c **** *
 706:Generated_Source\PSoC5/cyfitter_cfg.c **** *******************************************************************************/
 707:Generated_Source\PSoC5/cyfitter_cfg.c **** void SetAnalogRoutingPumps(uint8 enabled)
 708:Generated_Source\PSoC5/cyfitter_cfg.c **** {
 1108              		.loc 1 708 0
 1109              		.cfi_startproc
 1110              		@ args = 0, pretend = 0, frame = 16
 1111              		@ frame_needed = 1, uses_anonymous_args = 0
ARM GAS  C:\Users\rcaravac\AppData\Local\Temp\ccy3g4oq.s 			page 33


 1112              		@ link register save eliminated.
 1113 0000 80B4     		push	{r7}
 1114              		.cfi_def_cfa_offset 4
 1115              		.cfi_offset 7, -4
 1116 0002 85B0     		sub	sp, sp, #20
 1117              		.cfi_def_cfa_offset 24
 1118 0004 00AF     		add	r7, sp, #0
 1119              		.cfi_def_cfa_register 7
 1120 0006 0346     		mov	r3, r0
 1121 0008 FB71     		strb	r3, [r7, #7]
 709:Generated_Source\PSoC5/cyfitter_cfg.c **** 	uint8 regValue = CY_GET_XTND_REG8((void CYFAR *)CYREG_PUMP_CR0);
 1122              		.loc 1 709 0
 1123 000a 0B4B     		ldr	r3, .L30
 1124 000c 1B78     		ldrb	r3, [r3]
 1125 000e FB73     		strb	r3, [r7, #15]
 710:Generated_Source\PSoC5/cyfitter_cfg.c **** 	if (enabled != 0u)
 1126              		.loc 1 710 0
 1127 0010 FB79     		ldrb	r3, [r7, #7]	@ zero_extendqisi2
 1128 0012 002B     		cmp	r3, #0
 1129 0014 04D0     		beq	.L28
 711:Generated_Source\PSoC5/cyfitter_cfg.c **** 	{
 712:Generated_Source\PSoC5/cyfitter_cfg.c **** 		regValue |= 0x22u;
 1130              		.loc 1 712 0
 1131 0016 FB7B     		ldrb	r3, [r7, #15]
 1132 0018 43F02203 		orr	r3, r3, #34
 1133 001c FB73     		strb	r3, [r7, #15]
 1134 001e 03E0     		b	.L29
 1135              	.L28:
 713:Generated_Source\PSoC5/cyfitter_cfg.c **** 	}
 714:Generated_Source\PSoC5/cyfitter_cfg.c **** 	else
 715:Generated_Source\PSoC5/cyfitter_cfg.c **** 	{
 716:Generated_Source\PSoC5/cyfitter_cfg.c **** 		regValue &= (uint8)~0x22u;
 1136              		.loc 1 716 0
 1137 0020 FB7B     		ldrb	r3, [r7, #15]
 1138 0022 23F02203 		bic	r3, r3, #34
 1139 0026 FB73     		strb	r3, [r7, #15]
 1140              	.L29:
 717:Generated_Source\PSoC5/cyfitter_cfg.c **** 	}
 718:Generated_Source\PSoC5/cyfitter_cfg.c **** 	CY_SET_XTND_REG8((void CYFAR *)CYREG_PUMP_CR0, regValue);
 1141              		.loc 1 718 0
 1142 0028 034A     		ldr	r2, .L30
 1143 002a FB7B     		ldrb	r3, [r7, #15]
 1144 002c 1370     		strb	r3, [r2]
 719:Generated_Source\PSoC5/cyfitter_cfg.c **** }
 1145              		.loc 1 719 0
 1146 002e 00BF     		nop
 1147 0030 1437     		adds	r7, r7, #20
 1148              		.cfi_def_cfa_offset 4
 1149 0032 BD46     		mov	sp, r7
 1150              		.cfi_def_cfa_register 13
 1151              		@ sp needed
 1152 0034 80BC     		pop	{r7}
 1153              		.cfi_restore 7
 1154              		.cfi_def_cfa_offset 0
 1155 0036 7047     		bx	lr
 1156              	.L31:
 1157              		.align	2
ARM GAS  C:\Users\rcaravac\AppData\Local\Temp\ccy3g4oq.s 			page 34


 1158              	.L30:
 1159 0038 76580040 		.word	1073764470
 1160              		.cfi_endproc
 1161              	.LFE7:
 1162              		.size	SetAnalogRoutingPumps, .-SetAnalogRoutingPumps
 1163              		.global	ADC_DelSig_AMux__addrTable
 1164              		.section	.rodata
 1165              		.align	2
 1166              		.type	ADC_DelSig_AMux__addrTable, %object
 1167              		.size	ADC_DelSig_AMux__addrTable, 8
 1168              	ADC_DelSig_AMux__addrTable:
 1169 0000 035B0040 		.word	1073765123
 1170 0004 24430040 		.word	1073759012
 1171              		.global	ADC_DelSig_AMux__maskTable
 1172              		.align	2
 1173              		.type	ADC_DelSig_AMux__maskTable, %object
 1174              		.size	ADC_DelSig_AMux__maskTable, 2
 1175              	ADC_DelSig_AMux__maskTable:
 1176 0008 40       		.byte	64
 1177 0009 00       		.byte	0
 1178              		.section	.text.ADC_DelSig_AMux_Set,"ax",%progbits
 1179              		.align	2
 1180              		.global	ADC_DelSig_AMux_Set
 1181              		.thumb
 1182              		.thumb_func
 1183              		.type	ADC_DelSig_AMux_Set, %function
 1184              	ADC_DelSig_AMux_Set:
 1185              	.LFB8:
 720:Generated_Source\PSoC5/cyfitter_cfg.c **** 
 721:Generated_Source\PSoC5/cyfitter_cfg.c **** 
 722:Generated_Source\PSoC5/cyfitter_cfg.c **** #define CY_AMUX_UNUSED CYREG_BOOST_SR
 723:Generated_Source\PSoC5/cyfitter_cfg.c **** /* This is an implementation detail of the AMux. Code that depends on it may be
 724:Generated_Source\PSoC5/cyfitter_cfg.c ****    incompatible with other versions of PSoC Creator. */
 725:Generated_Source\PSoC5/cyfitter_cfg.c **** uint8 CYXDATA * const CYCODE ADC_DelSig_AMux__addrTable[2] = {
 726:Generated_Source\PSoC5/cyfitter_cfg.c **** 	(uint8 CYXDATA *)CYREG_DSM0_SW3, 
 727:Generated_Source\PSoC5/cyfitter_cfg.c **** 	(uint8 CYXDATA *)CY_AMUX_UNUSED, 
 728:Generated_Source\PSoC5/cyfitter_cfg.c **** };
 729:Generated_Source\PSoC5/cyfitter_cfg.c **** 
 730:Generated_Source\PSoC5/cyfitter_cfg.c **** /* This is an implementation detail of the AMux. Code that depends on it may be
 731:Generated_Source\PSoC5/cyfitter_cfg.c ****    incompatible with other versions of PSoC Creator. */
 732:Generated_Source\PSoC5/cyfitter_cfg.c **** const uint8 CYCODE ADC_DelSig_AMux__maskTable[2] = {
 733:Generated_Source\PSoC5/cyfitter_cfg.c **** 	0x40u, 
 734:Generated_Source\PSoC5/cyfitter_cfg.c **** 	0x00u, 
 735:Generated_Source\PSoC5/cyfitter_cfg.c **** };
 736:Generated_Source\PSoC5/cyfitter_cfg.c **** 
 737:Generated_Source\PSoC5/cyfitter_cfg.c **** /*******************************************************************************
 738:Generated_Source\PSoC5/cyfitter_cfg.c **** * Function Name: ADC_DelSig_AMux_Set
 739:Generated_Source\PSoC5/cyfitter_cfg.c **** ********************************************************************************
 740:Generated_Source\PSoC5/cyfitter_cfg.c **** * Summary:
 741:Generated_Source\PSoC5/cyfitter_cfg.c **** *  This function is used to set a particular channel as active on the AMux.
 742:Generated_Source\PSoC5/cyfitter_cfg.c **** *
 743:Generated_Source\PSoC5/cyfitter_cfg.c **** * Parameters:  
 744:Generated_Source\PSoC5/cyfitter_cfg.c **** *   channel - The mux channel input to set as active
 745:Generated_Source\PSoC5/cyfitter_cfg.c **** *
 746:Generated_Source\PSoC5/cyfitter_cfg.c **** * Return:
 747:Generated_Source\PSoC5/cyfitter_cfg.c **** *   void
 748:Generated_Source\PSoC5/cyfitter_cfg.c **** *
ARM GAS  C:\Users\rcaravac\AppData\Local\Temp\ccy3g4oq.s 			page 35


 749:Generated_Source\PSoC5/cyfitter_cfg.c **** *******************************************************************************/
 750:Generated_Source\PSoC5/cyfitter_cfg.c **** void ADC_DelSig_AMux_Set(uint8 channel)
 751:Generated_Source\PSoC5/cyfitter_cfg.c **** {
 1186              		.loc 1 751 0
 1187              		.cfi_startproc
 1188              		@ args = 0, pretend = 0, frame = 8
 1189              		@ frame_needed = 1, uses_anonymous_args = 0
 1190              		@ link register save eliminated.
 1191 0000 80B4     		push	{r7}
 1192              		.cfi_def_cfa_offset 4
 1193              		.cfi_offset 7, -4
 1194 0002 83B0     		sub	sp, sp, #12
 1195              		.cfi_def_cfa_offset 16
 1196 0004 00AF     		add	r7, sp, #0
 1197              		.cfi_def_cfa_register 7
 1198 0006 0346     		mov	r3, r0
 1199 0008 FB71     		strb	r3, [r7, #7]
 752:Generated_Source\PSoC5/cyfitter_cfg.c **** 	if (channel < 2)
 1200              		.loc 1 752 0
 1201 000a FB79     		ldrb	r3, [r7, #7]	@ zero_extendqisi2
 1202 000c 012B     		cmp	r3, #1
 1203 000e 0ED8     		bhi	.L34
 753:Generated_Source\PSoC5/cyfitter_cfg.c **** 	{
 754:Generated_Source\PSoC5/cyfitter_cfg.c **** 		*ADC_DelSig_AMux__addrTable[channel] |= ADC_DelSig_AMux__maskTable[channel];
 1204              		.loc 1 754 0
 1205 0010 FB79     		ldrb	r3, [r7, #7]	@ zero_extendqisi2
 1206 0012 094A     		ldr	r2, .L35
 1207 0014 52F82330 		ldr	r3, [r2, r3, lsl #2]
 1208 0018 FA79     		ldrb	r2, [r7, #7]	@ zero_extendqisi2
 1209 001a 0749     		ldr	r1, .L35
 1210 001c 51F82220 		ldr	r2, [r1, r2, lsl #2]
 1211 0020 1178     		ldrb	r1, [r2]	@ zero_extendqisi2
 1212 0022 FA79     		ldrb	r2, [r7, #7]	@ zero_extendqisi2
 1213 0024 0548     		ldr	r0, .L35+4
 1214 0026 825C     		ldrb	r2, [r0, r2]	@ zero_extendqisi2
 1215 0028 0A43     		orrs	r2, r2, r1
 1216 002a D2B2     		uxtb	r2, r2
 1217 002c 1A70     		strb	r2, [r3]
 1218              	.L34:
 755:Generated_Source\PSoC5/cyfitter_cfg.c **** 	}
 756:Generated_Source\PSoC5/cyfitter_cfg.c **** }
 1219              		.loc 1 756 0
 1220 002e 00BF     		nop
 1221 0030 0C37     		adds	r7, r7, #12
 1222              		.cfi_def_cfa_offset 4
 1223 0032 BD46     		mov	sp, r7
 1224              		.cfi_def_cfa_register 13
 1225              		@ sp needed
 1226 0034 80BC     		pop	{r7}
 1227              		.cfi_restore 7
 1228              		.cfi_def_cfa_offset 0
 1229 0036 7047     		bx	lr
 1230              	.L36:
 1231              		.align	2
 1232              	.L35:
 1233 0038 00000000 		.word	ADC_DelSig_AMux__addrTable
 1234 003c 00000000 		.word	ADC_DelSig_AMux__maskTable
ARM GAS  C:\Users\rcaravac\AppData\Local\Temp\ccy3g4oq.s 			page 36


 1235              		.cfi_endproc
 1236              	.LFE8:
 1237              		.size	ADC_DelSig_AMux_Set, .-ADC_DelSig_AMux_Set
 1238              		.section	.text.ADC_DelSig_AMux_Unset,"ax",%progbits
 1239              		.align	2
 1240              		.global	ADC_DelSig_AMux_Unset
 1241              		.thumb
 1242              		.thumb_func
 1243              		.type	ADC_DelSig_AMux_Unset, %function
 1244              	ADC_DelSig_AMux_Unset:
 1245              	.LFB9:
 757:Generated_Source\PSoC5/cyfitter_cfg.c **** 
 758:Generated_Source\PSoC5/cyfitter_cfg.c **** /*******************************************************************************
 759:Generated_Source\PSoC5/cyfitter_cfg.c **** * Function Name: ADC_DelSig_AMux_Unset
 760:Generated_Source\PSoC5/cyfitter_cfg.c **** ********************************************************************************
 761:Generated_Source\PSoC5/cyfitter_cfg.c **** * Summary:
 762:Generated_Source\PSoC5/cyfitter_cfg.c **** *  This function is used to clear a particular channel from being active on the
 763:Generated_Source\PSoC5/cyfitter_cfg.c **** *  AMux.
 764:Generated_Source\PSoC5/cyfitter_cfg.c **** *
 765:Generated_Source\PSoC5/cyfitter_cfg.c **** * Parameters:  
 766:Generated_Source\PSoC5/cyfitter_cfg.c **** *   channel - The mux channel input to mark inactive
 767:Generated_Source\PSoC5/cyfitter_cfg.c **** *
 768:Generated_Source\PSoC5/cyfitter_cfg.c **** * Return:
 769:Generated_Source\PSoC5/cyfitter_cfg.c **** *   void
 770:Generated_Source\PSoC5/cyfitter_cfg.c **** *
 771:Generated_Source\PSoC5/cyfitter_cfg.c **** *******************************************************************************/
 772:Generated_Source\PSoC5/cyfitter_cfg.c **** void ADC_DelSig_AMux_Unset(uint8 channel)
 773:Generated_Source\PSoC5/cyfitter_cfg.c **** {
 1246              		.loc 1 773 0
 1247              		.cfi_startproc
 1248              		@ args = 0, pretend = 0, frame = 8
 1249              		@ frame_needed = 1, uses_anonymous_args = 0
 1250              		@ link register save eliminated.
 1251 0000 80B4     		push	{r7}
 1252              		.cfi_def_cfa_offset 4
 1253              		.cfi_offset 7, -4
 1254 0002 83B0     		sub	sp, sp, #12
 1255              		.cfi_def_cfa_offset 16
 1256 0004 00AF     		add	r7, sp, #0
 1257              		.cfi_def_cfa_register 7
 1258 0006 0346     		mov	r3, r0
 1259 0008 FB71     		strb	r3, [r7, #7]
 774:Generated_Source\PSoC5/cyfitter_cfg.c **** 	if (channel < 2)
 1260              		.loc 1 774 0
 1261 000a FB79     		ldrb	r3, [r7, #7]	@ zero_extendqisi2
 1262 000c 012B     		cmp	r3, #1
 1263 000e 10D8     		bhi	.L39
 775:Generated_Source\PSoC5/cyfitter_cfg.c **** 	{
 776:Generated_Source\PSoC5/cyfitter_cfg.c **** 		*ADC_DelSig_AMux__addrTable[channel] &= (uint8)~ADC_DelSig_AMux__maskTable[channel];
 1264              		.loc 1 776 0
 1265 0010 FB79     		ldrb	r3, [r7, #7]	@ zero_extendqisi2
 1266 0012 0A4A     		ldr	r2, .L40
 1267 0014 52F82330 		ldr	r3, [r2, r3, lsl #2]
 1268 0018 FA79     		ldrb	r2, [r7, #7]	@ zero_extendqisi2
 1269 001a 0849     		ldr	r1, .L40
 1270 001c 51F82220 		ldr	r2, [r1, r2, lsl #2]
 1271 0020 1178     		ldrb	r1, [r2]	@ zero_extendqisi2
ARM GAS  C:\Users\rcaravac\AppData\Local\Temp\ccy3g4oq.s 			page 37


 1272 0022 FA79     		ldrb	r2, [r7, #7]	@ zero_extendqisi2
 1273 0024 0648     		ldr	r0, .L40+4
 1274 0026 825C     		ldrb	r2, [r0, r2]	@ zero_extendqisi2
 1275 0028 D243     		mvns	r2, r2
 1276 002a D2B2     		uxtb	r2, r2
 1277 002c 0A40     		ands	r2, r2, r1
 1278 002e D2B2     		uxtb	r2, r2
 1279 0030 1A70     		strb	r2, [r3]
 1280              	.L39:
 777:Generated_Source\PSoC5/cyfitter_cfg.c **** 	}
 778:Generated_Source\PSoC5/cyfitter_cfg.c **** }
 1281              		.loc 1 778 0
 1282 0032 00BF     		nop
 1283 0034 0C37     		adds	r7, r7, #12
 1284              		.cfi_def_cfa_offset 4
 1285 0036 BD46     		mov	sp, r7
 1286              		.cfi_def_cfa_register 13
 1287              		@ sp needed
 1288 0038 80BC     		pop	{r7}
 1289              		.cfi_restore 7
 1290              		.cfi_def_cfa_offset 0
 1291 003a 7047     		bx	lr
 1292              	.L41:
 1293              		.align	2
 1294              	.L40:
 1295 003c 00000000 		.word	ADC_DelSig_AMux__addrTable
 1296 0040 00000000 		.word	ADC_DelSig_AMux__maskTable
 1297              		.cfi_endproc
 1298              	.LFE9:
 1299              		.size	ADC_DelSig_AMux_Unset, .-ADC_DelSig_AMux_Unset
 1300              		.section	.text.cyfitter_cfg,"ax",%progbits
 1301              		.align	2
 1302              		.global	cyfitter_cfg
 1303              		.thumb
 1304              		.thumb_func
 1305              		.type	cyfitter_cfg, %function
 1306              	cyfitter_cfg:
 1307              	.LFB10:
 779:Generated_Source\PSoC5/cyfitter_cfg.c **** 
 780:Generated_Source\PSoC5/cyfitter_cfg.c **** 
 781:Generated_Source\PSoC5/cyfitter_cfg.c **** 
 782:Generated_Source\PSoC5/cyfitter_cfg.c **** /*******************************************************************************
 783:Generated_Source\PSoC5/cyfitter_cfg.c **** * Function Name: cyfitter_cfg
 784:Generated_Source\PSoC5/cyfitter_cfg.c **** ********************************************************************************
 785:Generated_Source\PSoC5/cyfitter_cfg.c **** * Summary:
 786:Generated_Source\PSoC5/cyfitter_cfg.c **** *  This function is called by the start-up code for the selected device. It
 787:Generated_Source\PSoC5/cyfitter_cfg.c **** *  performs all of the necessary device configuration based on the design
 788:Generated_Source\PSoC5/cyfitter_cfg.c **** *  settings.  This includes settings from the Design Wide Resources (DWR) such
 789:Generated_Source\PSoC5/cyfitter_cfg.c **** *  as Clocks and Pins as well as any component configuration that is necessary.
 790:Generated_Source\PSoC5/cyfitter_cfg.c **** *
 791:Generated_Source\PSoC5/cyfitter_cfg.c **** * Parameters:
 792:Generated_Source\PSoC5/cyfitter_cfg.c **** *   void
 793:Generated_Source\PSoC5/cyfitter_cfg.c **** *
 794:Generated_Source\PSoC5/cyfitter_cfg.c **** * Return:
 795:Generated_Source\PSoC5/cyfitter_cfg.c **** *   void
 796:Generated_Source\PSoC5/cyfitter_cfg.c **** *
 797:Generated_Source\PSoC5/cyfitter_cfg.c **** *******************************************************************************/
ARM GAS  C:\Users\rcaravac\AppData\Local\Temp\ccy3g4oq.s 			page 38


 798:Generated_Source\PSoC5/cyfitter_cfg.c **** 
 799:Generated_Source\PSoC5/cyfitter_cfg.c **** void cyfitter_cfg(void)
 800:Generated_Source\PSoC5/cyfitter_cfg.c **** {
 1308              		.loc 1 800 0
 1309              		.cfi_startproc
 1310              		@ args = 0, pretend = 0, frame = 0
 1311              		@ frame_needed = 1, uses_anonymous_args = 0
 1312 0000 80B5     		push	{r7, lr}
 1313              		.cfi_def_cfa_offset 8
 1314              		.cfi_offset 7, -8
 1315              		.cfi_offset 14, -4
 1316 0002 00AF     		add	r7, sp, #0
 1317              		.cfi_def_cfa_register 7
 801:Generated_Source\PSoC5/cyfitter_cfg.c **** #ifdef CYGlobalIntDisable
 802:Generated_Source\PSoC5/cyfitter_cfg.c **** 	/* Disable interrupts by default. Let user enable if/when they want. */
 803:Generated_Source\PSoC5/cyfitter_cfg.c **** 	CYGlobalIntDisable
 1318              		.loc 1 803 0
 1319              		.syntax unified
 1320              	@ 803 "Generated_Source\PSoC5\cyfitter_cfg.c" 1
 1321 0004 72B6     		CPSID   i
 1322              	@ 0 "" 2
 804:Generated_Source\PSoC5/cyfitter_cfg.c **** #endif
 805:Generated_Source\PSoC5/cyfitter_cfg.c **** 
 806:Generated_Source\PSoC5/cyfitter_cfg.c **** 
 807:Generated_Source\PSoC5/cyfitter_cfg.c **** 	/* Set Flash Cycles based on max possible frequency in case a glitch occurs during ClockSetup(). *
 808:Generated_Source\PSoC5/cyfitter_cfg.c **** 	CY_SET_XTND_REG8((void CYFAR *)(CYREG_CACHE_CC_CTL), (((CYDEV_INSTRUCT_CACHE_ENABLED) != 0) ? 0x61
 1323              		.loc 1 808 0
 1324              		.thumb
 1325              		.syntax unified
 1326 0006 344B     		ldr	r3, .L43
 1327 0008 6122     		movs	r2, #97
 1328 000a 1A70     		strb	r2, [r3]
 809:Generated_Source\PSoC5/cyfitter_cfg.c **** 	/* Setup clocks based on selections from Clock DWR */
 810:Generated_Source\PSoC5/cyfitter_cfg.c **** 	ClockSetup();
 1329              		.loc 1 810 0
 1330 000c FFF7FEFF 		bl	ClockSetup
 811:Generated_Source\PSoC5/cyfitter_cfg.c **** 	/* Set Flash Cycles based on newly configured 24.00MHz Bus Clock. */
 812:Generated_Source\PSoC5/cyfitter_cfg.c **** 	CY_SET_XTND_REG8((void CYFAR *)(CYREG_CACHE_CC_CTL), (((CYDEV_INSTRUCT_CACHE_ENABLED) != 0) ? 0x81
 1331              		.loc 1 812 0
 1332 0010 314B     		ldr	r3, .L43
 1333 0012 8122     		movs	r2, #129
 1334 0014 1A70     		strb	r2, [r3]
 813:Generated_Source\PSoC5/cyfitter_cfg.c **** 	/* Enable/Disable Debug functionality based on settings from System DWR */
 814:Generated_Source\PSoC5/cyfitter_cfg.c **** 	CY_SET_XTND_REG8((void CYFAR *)CYREG_MLOGIC_DEBUG, (CY_GET_XTND_REG8((void CYFAR *)CYREG_MLOGIC_DE
 1335              		.loc 1 814 0
 1336 0016 314A     		ldr	r2, .L43+4
 1337 0018 304B     		ldr	r3, .L43+4
 1338 001a 1B78     		ldrb	r3, [r3]
 1339 001c DBB2     		uxtb	r3, r3
 1340 001e 43F00403 		orr	r3, r3, #4
 1341 0022 DBB2     		uxtb	r3, r3
 1342 0024 1370     		strb	r3, [r2]
 815:Generated_Source\PSoC5/cyfitter_cfg.c **** 
 816:Generated_Source\PSoC5/cyfitter_cfg.c **** 	{
 817:Generated_Source\PSoC5/cyfitter_cfg.c **** 		cfg_dma_init();
 1343              		.loc 1 817 0
 1344 0026 FFF7FEFF 		bl	cfg_dma_init
ARM GAS  C:\Users\rcaravac\AppData\Local\Temp\ccy3g4oq.s 			page 39


 818:Generated_Source\PSoC5/cyfitter_cfg.c **** 
 819:Generated_Source\PSoC5/cyfitter_cfg.c **** 		/* Perform normal device configuration. Order is not critical for these items. */
 820:Generated_Source\PSoC5/cyfitter_cfg.c **** 		CY_SET_XTND_REG8((void CYFAR *)(CYREG_DSM0_CR3), 0x0Au);
 1345              		.loc 1 820 0
 1346 002a 2D4B     		ldr	r3, .L43+8
 1347 002c 0A22     		movs	r2, #10
 1348 002e 1A70     		strb	r2, [r3]
 821:Generated_Source\PSoC5/cyfitter_cfg.c **** 		CYMEMZERO((void CYFAR *)(CYREG_PHUB_CFGMEM0_CFG0), 4u);
 1349              		.loc 1 821 0
 1350 0030 0421     		movs	r1, #4
 1351 0032 2C48     		ldr	r0, .L43+12
 1352 0034 FFF7FEFF 		bl	CYMEMZERO
 822:Generated_Source\PSoC5/cyfitter_cfg.c **** 		CYMEMZERO((void CYFAR *)(CYREG_PHUB_CFGMEM10_CFG0), 4u);
 1353              		.loc 1 822 0
 1354 0038 0421     		movs	r1, #4
 1355 003a 2B48     		ldr	r0, .L43+16
 1356 003c FFF7FEFF 		bl	CYMEMZERO
 823:Generated_Source\PSoC5/cyfitter_cfg.c **** 		CYMEMZERO((void CYFAR *)(CYREG_PHUB_CFGMEM1_CFG0), 4u);
 1357              		.loc 1 823 0
 1358 0040 0421     		movs	r1, #4
 1359 0042 2A48     		ldr	r0, .L43+20
 1360 0044 FFF7FEFF 		bl	CYMEMZERO
 824:Generated_Source\PSoC5/cyfitter_cfg.c **** 
 825:Generated_Source\PSoC5/cyfitter_cfg.c **** 		/* Enable digital routing */
 826:Generated_Source\PSoC5/cyfitter_cfg.c **** 		CY_SET_XTND_REG8((void CYFAR *)CYREG_BCTL0_BANK_CTL, CY_GET_XTND_REG8((void CYFAR *)CYREG_BCTL0_B
 1361              		.loc 1 826 0
 1362 0048 294A     		ldr	r2, .L43+24
 1363 004a 294B     		ldr	r3, .L43+24
 1364 004c 1B78     		ldrb	r3, [r3]
 1365 004e DBB2     		uxtb	r3, r3
 1366 0050 43F00203 		orr	r3, r3, #2
 1367 0054 DBB2     		uxtb	r3, r3
 1368 0056 1370     		strb	r3, [r2]
 827:Generated_Source\PSoC5/cyfitter_cfg.c **** 		CY_SET_XTND_REG8((void CYFAR *)CYREG_BCTL1_BANK_CTL, CY_GET_XTND_REG8((void CYFAR *)CYREG_BCTL1_B
 1369              		.loc 1 827 0
 1370 0058 264A     		ldr	r2, .L43+28
 1371 005a 264B     		ldr	r3, .L43+28
 1372 005c 1B78     		ldrb	r3, [r3]
 1373 005e DBB2     		uxtb	r3, r3
 1374 0060 43F00203 		orr	r3, r3, #2
 1375 0064 DBB2     		uxtb	r3, r3
 1376 0066 1370     		strb	r3, [r2]
 828:Generated_Source\PSoC5/cyfitter_cfg.c **** 
 829:Generated_Source\PSoC5/cyfitter_cfg.c **** 		/* Enable UDB array */
 830:Generated_Source\PSoC5/cyfitter_cfg.c **** 		CY_SET_XTND_REG8((void CYFAR *)CYREG_PM_ACT_CFG0, CY_GET_XTND_REG8((void CYFAR *)CYREG_PM_ACT_CFG
 1377              		.loc 1 830 0
 1378 0068 234A     		ldr	r2, .L43+32
 1379 006a 234B     		ldr	r3, .L43+32
 1380 006c 1B78     		ldrb	r3, [r3]
 1381 006e DBB2     		uxtb	r3, r3
 1382 0070 43F04003 		orr	r3, r3, #64
 1383 0074 DBB2     		uxtb	r3, r3
 1384 0076 1370     		strb	r3, [r2]
 831:Generated_Source\PSoC5/cyfitter_cfg.c **** 		CY_SET_XTND_REG8((void CYFAR *)CYREG_PM_AVAIL_CR2, CY_GET_XTND_REG8((void CYFAR *)CYREG_PM_AVAIL_
 1385              		.loc 1 831 0
 1386 0078 204A     		ldr	r2, .L43+36
 1387 007a 204B     		ldr	r3, .L43+36
ARM GAS  C:\Users\rcaravac\AppData\Local\Temp\ccy3g4oq.s 			page 40


 1388 007c 1B78     		ldrb	r3, [r3]
 1389 007e DBB2     		uxtb	r3, r3
 1390 0080 43F01003 		orr	r3, r3, #16
 1391 0084 DBB2     		uxtb	r3, r3
 1392 0086 1370     		strb	r3, [r2]
 832:Generated_Source\PSoC5/cyfitter_cfg.c **** 	}
 833:Generated_Source\PSoC5/cyfitter_cfg.c **** 
 834:Generated_Source\PSoC5/cyfitter_cfg.c **** 
 835:Generated_Source\PSoC5/cyfitter_cfg.c **** 	/* Perform second pass device configuration. These items must be configured in specific order afte
 836:Generated_Source\PSoC5/cyfitter_cfg.c **** 	CYCONFIGCPY((void CYFAR *)(CYREG_PRT0_DM0), (const void CYFAR *)(BS_IOPINS0_0_VAL), 8u);
 1393              		.loc 1 836 0
 1394 0088 0822     		movs	r2, #8
 1395 008a 1D49     		ldr	r1, .L43+40
 1396 008c 1D48     		ldr	r0, .L43+44
 1397 008e FFF7FEFF 		bl	CYCONFIGCPY
 837:Generated_Source\PSoC5/cyfitter_cfg.c **** 	CYCONFIGCPY((void CYFAR *)(CYREG_PRT12_DR), (const void CYFAR *)(BS_IOPINS0_7_VAL), 10u);
 1398              		.loc 1 837 0
 1399 0092 0A22     		movs	r2, #10
 1400 0094 1C49     		ldr	r1, .L43+48
 1401 0096 1D48     		ldr	r0, .L43+52
 1402 0098 FFF7FEFF 		bl	CYCONFIGCPY
 838:Generated_Source\PSoC5/cyfitter_cfg.c **** 	CYCONFIGCPY((void CYFAR *)(CYREG_PRT1_DM0), (const void CYFAR *)(BS_IOPINS0_1_VAL), 8u);
 1403              		.loc 1 838 0
 1404 009c 0822     		movs	r2, #8
 1405 009e 1C49     		ldr	r1, .L43+56
 1406 00a0 1C48     		ldr	r0, .L43+60
 1407 00a2 FFF7FEFF 		bl	CYCONFIGCPY
 839:Generated_Source\PSoC5/cyfitter_cfg.c **** 	CYCONFIGCPY((void CYFAR *)(CYREG_PRT2_DM0), (const void CYFAR *)(BS_IOPINS0_2_VAL), 8u);
 1408              		.loc 1 839 0
 1409 00a6 0822     		movs	r2, #8
 1410 00a8 1B49     		ldr	r1, .L43+64
 1411 00aa 1C48     		ldr	r0, .L43+68
 1412 00ac FFF7FEFF 		bl	CYCONFIGCPY
 840:Generated_Source\PSoC5/cyfitter_cfg.c **** 	/* Switch Boost to the precision bandgap reference from its internal reference */
 841:Generated_Source\PSoC5/cyfitter_cfg.c **** 	CY_SET_REG8((void CYXDATA *)CYREG_BOOST_CR2, (CY_GET_REG8((void CYXDATA *)CYREG_BOOST_CR2) | 0x08u
 1413              		.loc 1 841 0
 1414 00b0 1B4A     		ldr	r2, .L43+72
 1415 00b2 1B4B     		ldr	r3, .L43+72
 1416 00b4 1B78     		ldrb	r3, [r3]
 1417 00b6 DBB2     		uxtb	r3, r3
 1418 00b8 43F00803 		orr	r3, r3, #8
 1419 00bc DBB2     		uxtb	r3, r3
 1420 00be 1370     		strb	r3, [r2]
 842:Generated_Source\PSoC5/cyfitter_cfg.c **** 	CY_SET_XTND_REG8((void CYFAR *)(CYREG_PANTHER_WAITPIPE), 0x01u);
 1421              		.loc 1 842 0
 1422 00c0 184B     		ldr	r3, .L43+76
 1423 00c2 0122     		movs	r2, #1
 1424 00c4 1A70     		strb	r2, [r3]
 843:Generated_Source\PSoC5/cyfitter_cfg.c **** 
 844:Generated_Source\PSoC5/cyfitter_cfg.c **** 	/* Perform basic analog initialization to defaults */
 845:Generated_Source\PSoC5/cyfitter_cfg.c **** 	AnalogSetDefault();
 1425              		.loc 1 845 0
 1426 00c6 FFF7FEFF 		bl	AnalogSetDefault
 846:Generated_Source\PSoC5/cyfitter_cfg.c **** 
 847:Generated_Source\PSoC5/cyfitter_cfg.c **** 	/* Configure alternate active mode */
 848:Generated_Source\PSoC5/cyfitter_cfg.c **** 	CYCONFIGCPY((void CYFAR *)CYDEV_PM_STBY_BASE, (const void CYFAR *)CYDEV_PM_ACT_BASE, 14u);
 1427              		.loc 1 848 0
ARM GAS  C:\Users\rcaravac\AppData\Local\Temp\ccy3g4oq.s 			page 41


 1428 00ca 0E22     		movs	r2, #14
 1429 00cc 0A49     		ldr	r1, .L43+32
 1430 00ce 1648     		ldr	r0, .L43+80
 1431 00d0 FFF7FEFF 		bl	CYCONFIGCPY
 849:Generated_Source\PSoC5/cyfitter_cfg.c **** }
 1432              		.loc 1 849 0
 1433 00d4 00BF     		nop
 1434 00d6 80BD     		pop	{r7, pc}
 1435              	.L44:
 1436              		.align	2
 1437              	.L43:
 1438 00d8 00480040 		.word	1073760256
 1439 00dc E8460040 		.word	1073759976
 1440 00e0 83580040 		.word	1073764483
 1441 00e4 00760040 		.word	1073772032
 1442 00e8 50760040 		.word	1073772112
 1443 00ec 08760040 		.word	1073772040
 1444 00f0 03500140 		.word	1073827843
 1445 00f4 13500140 		.word	1073827859
 1446 00f8 A0430040 		.word	1073759136
 1447 00fc C2430040 		.word	1073759170
 1448 0100 98130048 		.word	1207964568
 1449 0104 02510040 		.word	1073762562
 1450 0108 A0130048 		.word	1207964576
 1451 010c C0510040 		.word	1073762752
 1452 0110 AC130048 		.word	1207964588
 1453 0114 12510040 		.word	1073762578
 1454 0118 B4130048 		.word	1207964596
 1455 011c 22510040 		.word	1073762594
 1456 0120 22430040 		.word	1073759010
 1457 0124 04000840 		.word	1074266116
 1458 0128 B0430040 		.word	1073759152
 1459              		.cfi_endproc
 1460              	.LFE10:
 1461              		.size	cyfitter_cfg, .-cyfitter_cfg
 1462              		.bss
 1463              		.align	3
 1464              	DMA_ZERO_VAL.4977:
 1465 0000 00000000 		.space	4
 1466              		.section	.rodata
 1467 000a 0000     		.align	2
 1468              		.type	CFG_TD_ADDR0.4979, %object
 1469              		.size	CFG_TD_ADDR0.4979, 272
 1470              	CFG_TD_ADDR0.4979:
 1471 000c 00000000 		.word	CH1_ADDR_DATA0.4972
 1472 0010 08000000 		.word	CH2_ADDR_DATA0.4973
 1473 0014 10000000 		.word	CH5_ADDR_DATA0.4974
 1474 0018 18000000 		.word	CH6_ADDR_DATA0.4975
 1475 001c 20000000 		.word	DMA_TD_START_CMD.4976
 1476 0020 20000000 		.word	DMA_TD_START_CMD.4976
 1477 0024 20000000 		.word	DMA_TD_START_CMD.4976
 1478 0028 20000000 		.word	DMA_TD_START_CMD.4976
 1479 002c 00000000 		.word	DMA_ZERO_VAL.4977
 1480 0030 00000000 		.word	DMA_ZERO_VAL.4977
 1481 0034 00000000 		.word	DMA_ZERO_VAL.4977
 1482 0038 00000000 		.word	DMA_ZERO_VAL.4977
 1483 003c 00000000 		.word	DMA_ZERO_VAL.4977
ARM GAS  C:\Users\rcaravac\AppData\Local\Temp\ccy3g4oq.s 			page 42


 1484 0040 00000000 		.word	DMA_ZERO_VAL.4977
 1485 0044 00000000 		.word	DMA_ZERO_VAL.4977
 1486 0048 00000000 		.word	DMA_ZERO_VAL.4977
 1487 004c 00000000 		.word	DMA_ZERO_VAL.4977
 1488 0050 00000000 		.word	DMA_ZERO_VAL.4977
 1489 0054 00000000 		.word	DMA_ZERO_VAL.4977
 1490 0058 00000000 		.word	DMA_ZERO_VAL.4977
 1491 005c 00000000 		.word	DMA_ZERO_VAL.4977
 1492 0060 08000048 		.word	1207959560
 1493 0064 18000048 		.word	1207959576
 1494 0068 24000048 		.word	1207959588
 1495 006c 30000048 		.word	1207959600
 1496 0070 B8030048 		.word	1207960504
 1497 0074 D8030048 		.word	1207960536
 1498 0078 10000048 		.word	1207959568
 1499 007c 38000048 		.word	1207959608
 1500 0080 B8000048 		.word	1207959736
 1501 0084 38010048 		.word	1207959864
 1502 0088 B8010048 		.word	1207959992
 1503 008c 38020048 		.word	1207960120
 1504 0090 B8020048 		.word	1207960248
 1505 0094 38030048 		.word	1207960376
 1506 0098 F8030048 		.word	1207960568
 1507 009c 08040048 		.word	1207960584
 1508 00a0 18040048 		.word	1207960600
 1509 00a4 98040048 		.word	1207960728
 1510 00a8 18050048 		.word	1207960856
 1511 00ac 98050048 		.word	1207960984
 1512 00b0 18060048 		.word	1207961112
 1513 00b4 98060048 		.word	1207961240
 1514 00b8 18070048 		.word	1207961368
 1515 00bc 98070048 		.word	1207961496
 1516 00c0 18080048 		.word	1207961624
 1517 00c4 98080048 		.word	1207961752
 1518 00c8 18090048 		.word	1207961880
 1519 00cc 98090048 		.word	1207962008
 1520 00d0 180A0048 		.word	1207962136
 1521 00d4 980A0048 		.word	1207962264
 1522 00d8 180B0048 		.word	1207962392
 1523 00dc 980B0048 		.word	1207962520
 1524 00e0 180C0048 		.word	1207962648
 1525 00e4 980C0048 		.word	1207962776
 1526 00e8 180D0048 		.word	1207962904
 1527 00ec 980D0048 		.word	1207963032
 1528 00f0 180E0048 		.word	1207963160
 1529 00f4 980E0048 		.word	1207963288
 1530 00f8 180F0048 		.word	1207963416
 1531 00fc 980F0048 		.word	1207963544
 1532 0100 18100048 		.word	1207963672
 1533 0104 98100048 		.word	1207963800
 1534 0108 18110048 		.word	1207963928
 1535 010c 98110048 		.word	1207964056
 1536 0110 18120048 		.word	1207964184
 1537 0114 98120048 		.word	1207964312
 1538 0118 18130048 		.word	1207964440
 1539              		.text
 1540              	.Letext0:
ARM GAS  C:\Users\rcaravac\AppData\Local\Temp\ccy3g4oq.s 			page 43


 1541              		.file 2 "c:\\program files (x86)\\cypress\\psoc creator\\4.2\\psoc creator\\import\\gnu\\arm\\5.4.
 1542              		.file 3 "Generated_Source\\PSoC5\\cytypes.h"