ARM GAS  C:\Users\rcaravac\AppData\Local\Temp\ccEllc3u.s 			page 1


   1              		.syntax unified
   2              		.cpu cortex-m3
   3              		.fpu softvfp
   4              		.eabi_attribute 20, 1
   5              		.eabi_attribute 21, 1
   6              		.eabi_attribute 23, 3
   7              		.eabi_attribute 24, 1
   8              		.eabi_attribute 25, 1
   9              		.eabi_attribute 26, 1
  10              		.eabi_attribute 30, 6
  11              		.eabi_attribute 34, 1
  12              		.eabi_attribute 18, 4
  13              		.thumb
  14              		.syntax unified
  15              		.file	"main.c"
  16              		.text
  17              	.Ltext0:
  18              		.cfi_sections	.debug_frame
  19              		.comm	ContinuouslySendData,1,1
  20              		.comm	SendSingleByte,1,1
  21              		.comm	SendEmulatedData,1,1
  22              		.comm	TransmitBuffer,16,4
  23              		.comm	EmulatedData,1,1
  24              		.comm	output,1,1
  25              		.comm	Buffer_sample_to_transmit,2000,4
  26              		.global	i
  27              		.bss
  28              		.align	2
  29              		.type	i, %object
  30              		.size	i, 4
  31              	i:
  32 0000 00000000 		.space	4
  33              		.global	sample_counter
  34              		.align	2
  35              		.type	sample_counter, %object
  36              		.size	sample_counter, 4
  37              	sample_counter:
  38 0004 00000000 		.space	4
  39              		.comm	counter_char,10,4
  40              		.comm	signal,8000,4
  41              		.comm	MAG_ROW,4,4
  42              		.comm	MAG_COL,4,4
  43              		.comm	mg,4,4
  44              		.comm	test,32,4
  45              		.comm	sample,4,4
  46              		.comm	sample_f,4,4
  47              		.global	__aeabi_ui2f
  48              		.global	__aeabi_f2iz
  49              		.section	.rodata
  50              		.align	2
  51              	.LC0:
  52 0000 25690D0A 		.ascii	"%i\015\012\000"
  52      00
  53 0005 000000   		.align	2
  54              	.LC1:
  55 0008 436F6C3A 		.ascii	"Col: %i\015\012\000"
  55      2025690D 
ARM GAS  C:\Users\rcaravac\AppData\Local\Temp\ccEllc3u.s 			page 2


  55      0A00
  56              		.section	.text.Transmit,"ax",%progbits
  57              		.align	2
  58              		.global	Transmit
  59              		.thumb
  60              		.thumb_func
  61              		.type	Transmit, %function
  62              	Transmit:
  63              	.LFB64:
  64              		.file 1 "main.c"
   1:main.c        **** /*******************************************************************************
   2:main.c        **** * File Name: main.c
   3:main.c        **** *
   4:main.c        **** * Version: 1.10
   5:main.c        **** *
   6:main.c        **** ********************************************************************************
   7:main.c        **** * Copyright 2012, Cypress Semiconductor Corporation. All rights reserved.
   8:main.c        **** * This software is owned by Cypress Semiconductor Corporation and is protected
   9:main.c        **** * by and subject to worldwide patent and copyright laws and treaties.
  10:main.c        **** * Therefore, you may use this software only as provided in the license agreement
  11:main.c        **** * accompanying the software package from which you obtained this software.
  12:main.c        **** * CYPRESS AND ITS SUPPLIERS MAKE NO WARRANTY OF ANY KIND, EXPRESS OR IMPLIED,
  13:main.c        **** * WITH REGARD TO THIS SOFTWARE, INCLUDING, BUT NOT LIMITED TO, NONINFRINGEMENT,
  14:main.c        **** * IMPLIED WARRANTIES OF MERCHANTABILITY AND FITNESS FOR A PARTICULAR PURPOSE.
  15:main.c        **** *******************************************************************************/
  16:main.c        **** 
  17:main.c        **** #include <project.h>
  18:main.c        **** #include <stdio.h>
  19:main.c        **** #include <math.h>
  20:main.c        **** #include <stdlib.h>
  21:main.c        **** 
  22:main.c        **** /* Project Defines */
  23:main.c        **** #define FALSE  0
  24:main.c        **** #define TRUE   1
  25:main.c        **** #define TRANSMIT_BUFFER_SIZE  16
  26:main.c        **** #define COUNT_OF_SAMPLES  2000
  27:main.c        **** 
  28:main.c        **** 
  29:main.c        **** /* DMA Defines */
  30:main.c        **** #define REQUEST_PER_BURST        (1u)
  31:main.c        **** #define BYTES_PER_BURST          (1u)
  32:main.c        **** #define UPPER_SRC_ADDRESS        CYDEV_PERIPH_BASE
  33:main.c        **** #define UPPER_DEST_ADDRESS       CYDEV_PERIPH_BASE
  34:main.c        **** 
  35:main.c        ****     /* Flags used to store transmit data commands */
  36:main.c        ****     uint8 ContinuouslySendData;
  37:main.c        ****     uint8 SendSingleByte;
  38:main.c        ****     uint8 SendEmulatedData;
  39:main.c        ****     /* Transmit Buffer */
  40:main.c        ****     char TransmitBuffer[TRANSMIT_BUFFER_SIZE];
  41:main.c        ****     /* Variable used to send emulated data */
  42:main.c        ****     uint8 EmulatedData;
  43:main.c        ****     uint8 output;
  44:main.c        **** 
  45:main.c        ****     uint8 Buffer_sample_to_transmit[COUNT_OF_SAMPLES];
  46:main.c        ****     int i = 0;
  47:main.c        ****     unsigned int sample_counter = 0;
ARM GAS  C:\Users\rcaravac\AppData\Local\Temp\ccEllc3u.s 			page 3


  48:main.c        ****     
  49:main.c        ****     char counter_char[10];
  50:main.c        ****     
  51:main.c        **** void DMA_Config(void);
  52:main.c        **** 
  53:main.c        **** float goertzel_mag(int numSamples,int TARGET_FREQUENCY,int SAMPLING_RATE, float data[]);
  54:main.c        **** 
  55:main.c        **** float signal[COUNT_OF_SAMPLES];
  56:main.c        **** float MAG_ROW, MAG_COL;
  57:main.c        **** int mg;
  58:main.c        **** char test[32];
  59:main.c        **** 
  60:main.c        **** 
  61:main.c        **** int sample;
  62:main.c        **** float sample_f;
  63:main.c        **** 
  64:main.c        **** //UART transmit interrupt
  65:main.c        **** CY_ISR_PROTO(Transmit);
  66:main.c        **** 
  67:main.c        **** CY_ISR(Transmit)
  68:main.c        **** {   
  65              		.loc 1 68 0
  66              		.cfi_startproc
  67              		@ args = 0, pretend = 0, frame = 8
  68              		@ frame_needed = 1, uses_anonymous_args = 0
  69 0000 80B5     		push	{r7, lr}
  70              		.cfi_def_cfa_offset 8
  71              		.cfi_offset 7, -8
  72              		.cfi_offset 14, -4
  73 0002 82B0     		sub	sp, sp, #8
  74              		.cfi_def_cfa_offset 16
  75 0004 00AF     		add	r7, sp, #0
  76              		.cfi_def_cfa_register 7
  69:main.c        ****     /* Send data based on last UART command */
  70:main.c        ****     if(SendSingleByte || ContinuouslySendData)
  77              		.loc 1 70 0
  78 0006 204B     		ldr	r3, .L7
  79 0008 1B78     		ldrb	r3, [r3]	@ zero_extendqisi2
  80 000a 002B     		cmp	r3, #0
  81 000c 03D1     		bne	.L2
  82              		.loc 1 70 0 is_stmt 0 discriminator 1
  83 000e 1F4B     		ldr	r3, .L7+4
  84 0010 1B78     		ldrb	r3, [r3]	@ zero_extendqisi2
  85 0012 002B     		cmp	r3, #0
  86 0014 34D0     		beq	.L6
  87              	.L2:
  88              	.LBB2:
  71:main.c        ****     {
  72:main.c        ****      for( int j = 0; j < COUNT_OF_SAMPLES; j++ ){
  89              		.loc 1 72 0 is_stmt 1
  90 0016 0023     		movs	r3, #0
  91 0018 7B60     		str	r3, [r7, #4]
  92 001a 22E0     		b	.L4
  93              	.L5:
  73:main.c        ****             signal[j] = (float) Buffer_sample_to_transmit[j];
  94              		.loc 1 73 0 discriminator 3
  95 001c 1C4A     		ldr	r2, .L7+8
ARM GAS  C:\Users\rcaravac\AppData\Local\Temp\ccEllc3u.s 			page 4


  96 001e 7B68     		ldr	r3, [r7, #4]
  97 0020 1344     		add	r3, r3, r2
  98 0022 1B78     		ldrb	r3, [r3]	@ zero_extendqisi2
  99 0024 1846     		mov	r0, r3
 100 0026 FFF7FEFF 		bl	__aeabi_ui2f
 101 002a 0146     		mov	r1, r0
 102 002c 194A     		ldr	r2, .L7+12
 103 002e 7B68     		ldr	r3, [r7, #4]
 104 0030 42F82310 		str	r1, [r2, r3, lsl #2]	@ float
  74:main.c        ****             sample = (int) signal[j];
 105              		.loc 1 74 0 discriminator 3
 106 0034 174A     		ldr	r2, .L7+12
 107 0036 7B68     		ldr	r3, [r7, #4]
 108 0038 52F82330 		ldr	r3, [r2, r3, lsl #2]	@ float
 109 003c 1846     		mov	r0, r3
 110 003e FFF7FEFF 		bl	__aeabi_f2iz
 111 0042 0246     		mov	r2, r0
 112 0044 144B     		ldr	r3, .L7+16
 113 0046 1A60     		str	r2, [r3]
  75:main.c        ****             sprintf(TransmitBuffer,"%i\r\n", sample);
 114              		.loc 1 75 0 discriminator 3
 115 0048 134B     		ldr	r3, .L7+16
 116 004a 1B68     		ldr	r3, [r3]
 117 004c 1A46     		mov	r2, r3
 118 004e 1349     		ldr	r1, .L7+20
 119 0050 1348     		ldr	r0, .L7+24
 120 0052 FFF7FEFF 		bl	sprintf
  76:main.c        ****             UART_1_PutString(TransmitBuffer);
 121              		.loc 1 76 0 discriminator 3
 122 0056 1248     		ldr	r0, .L7+24
 123 0058 FFF7FEFF 		bl	UART_1_PutString
  72:main.c        ****             signal[j] = (float) Buffer_sample_to_transmit[j];
 124              		.loc 1 72 0 discriminator 3
 125 005c 7B68     		ldr	r3, [r7, #4]
 126 005e 0133     		adds	r3, r3, #1
 127 0060 7B60     		str	r3, [r7, #4]
 128              	.L4:
  72:main.c        ****             signal[j] = (float) Buffer_sample_to_transmit[j];
 129              		.loc 1 72 0 is_stmt 0 discriminator 1
 130 0062 7B68     		ldr	r3, [r7, #4]
 131 0064 B3F5FA6F 		cmp	r3, #2000
 132 0068 D8DB     		blt	.L5
 133              	.LBE2:
  77:main.c        **** 
  78:main.c        ****         }
  79:main.c        ****         
  80:main.c        ****         //MAG_ROW = goertzel_mag(2000,690,8000,signal);               
  81:main.c        ****        // MAG_COL = goertzel_mag(2000,1209,8000,signal);        
  82:main.c        **** 
  83:main.c        ****        // sprintf(TransmitBuffer,"Row: %i\r\n", (int)MAG_ROW);
  84:main.c        ****        //     //UART_1_PutString(TransmitBuffer);
  85:main.c        ****         sprintf(TransmitBuffer,"Col: %i\r\n", (int)MAG_COL);
 134              		.loc 1 85 0 is_stmt 1
 135 006a 0E4B     		ldr	r3, .L7+28
 136 006c 1B68     		ldr	r3, [r3]	@ float
 137 006e 1846     		mov	r0, r3
 138 0070 FFF7FEFF 		bl	__aeabi_f2iz
ARM GAS  C:\Users\rcaravac\AppData\Local\Temp\ccEllc3u.s 			page 5


 139 0074 0346     		mov	r3, r0
 140 0076 1A46     		mov	r2, r3
 141 0078 0B49     		ldr	r1, .L7+32
 142 007a 0948     		ldr	r0, .L7+24
 143 007c FFF7FEFF 		bl	sprintf
 144              	.L6:
  86:main.c        ****             //UART_1_PutString(TransmitBuffer);
  87:main.c        ****             
  88:main.c        ****        // if (MAG_ROW >= 1 && MAG_COL >= 1) {
  89:main.c        ****             //UART_1_PutString("Num: 1\r\n");
  90:main.c        ****        // }
  91:main.c        ****     }        
  92:main.c        **** }
 145              		.loc 1 92 0
 146 0080 00BF     		nop
 147 0082 0837     		adds	r7, r7, #8
 148              		.cfi_def_cfa_offset 8
 149 0084 BD46     		mov	sp, r7
 150              		.cfi_def_cfa_register 13
 151              		@ sp needed
 152 0086 80BD     		pop	{r7, pc}
 153              	.L8:
 154              		.align	2
 155              	.L7:
 156 0088 00000000 		.word	SendSingleByte
 157 008c 00000000 		.word	ContinuouslySendData
 158 0090 00000000 		.word	Buffer_sample_to_transmit
 159 0094 00000000 		.word	signal
 160 0098 00000000 		.word	sample
 161 009c 00000000 		.word	.LC0
 162 00a0 00000000 		.word	TransmitBuffer
 163 00a4 00000000 		.word	MAG_COL
 164 00a8 08000000 		.word	.LC1
 165              		.cfi_endproc
 166              	.LFE64:
 167              		.size	Transmit, .-Transmit
 168              		.section	.text.filterVDAC,"ax",%progbits
 169              		.align	2
 170              		.global	filterVDAC
 171              		.thumb
 172              		.thumb_func
 173              		.type	filterVDAC, %function
 174              	filterVDAC:
 175              	.LFB65:
  93:main.c        **** 
  94:main.c        **** 
  95:main.c        **** /*******************************************************************************
  96:main.c        **** * Interrupt
  97:main.c        **** ********************************************************************************
  98:main.c        **** * Interrupt generated on Filter sample-ready. Interrupt handle:filterVDAC
  99:main.c        **** *
 100:main.c        **** * Summary:
 101:main.c        **** *  The interrupt performs following functions:
 102:main.c        **** *   1: Reads the left-justified register for Filter Channel A
 103:main.c        **** *   2: Converts it into an unsigned value
 104:main.c        **** *   3: Writes this value to VDAC
 105:main.c        **** *
ARM GAS  C:\Users\rcaravac\AppData\Local\Temp\ccEllc3u.s 			page 6


 106:main.c        **** *******************************************************************************/
 107:main.c        **** CY_ISR(filterVDAC)
 108:main.c        **** {
 176              		.loc 1 108 0
 177              		.cfi_startproc
 178              		@ args = 0, pretend = 0, frame = 0
 179              		@ frame_needed = 1, uses_anonymous_args = 0
 180 0000 80B5     		push	{r7, lr}
 181              		.cfi_def_cfa_offset 8
 182              		.cfi_offset 7, -8
 183              		.cfi_offset 14, -4
 184 0002 00AF     		add	r7, sp, #0
 185              		.cfi_def_cfa_register 7
 109:main.c        ****     /* Convert the 2's complement value to an unsigned 8-bit value
 110:main.c        ****      * The VDAC expects an unsigned 8-bit value as input.
 111:main.c        ****      */
 112:main.c        ****     output = Filter_Read8(Filter_CHANNEL_A)+32u;
 186              		.loc 1 112 0
 187 0004 0020     		movs	r0, #0
 188 0006 FFF7FEFF 		bl	Filter_Read8
 189 000a 0346     		mov	r3, r0
 190 000c 2033     		adds	r3, r3, #32
 191 000e DAB2     		uxtb	r2, r3
 192 0010 104B     		ldr	r3, .L12
 193 0012 1A70     		strb	r2, [r3]
 113:main.c        **** 	VDAC8_SetValue(output);
 194              		.loc 1 113 0
 195 0014 0F4B     		ldr	r3, .L12
 196 0016 1B78     		ldrb	r3, [r3]	@ zero_extendqisi2
 197 0018 1846     		mov	r0, r3
 198 001a FFF7FEFF 		bl	VDAC8_SetValue
 114:main.c        ****     
 115:main.c        ****     if (i <= COUNT_OF_SAMPLES) {       
 199              		.loc 1 115 0
 200 001e 0E4B     		ldr	r3, .L12+4
 201 0020 1B68     		ldr	r3, [r3]
 202 0022 B3F5FA6F 		cmp	r3, #2000
 203 0026 12DC     		bgt	.L11
 116:main.c        ****         Buffer_sample_to_transmit[i]= output;
 204              		.loc 1 116 0
 205 0028 0B4B     		ldr	r3, .L12+4
 206 002a 1B68     		ldr	r3, [r3]
 207 002c 094A     		ldr	r2, .L12
 208 002e 1178     		ldrb	r1, [r2]	@ zero_extendqisi2
 209 0030 0A4A     		ldr	r2, .L12+8
 210 0032 D154     		strb	r1, [r2, r3]
 117:main.c        ****         i++;
 211              		.loc 1 117 0
 212 0034 084B     		ldr	r3, .L12+4
 213 0036 1B68     		ldr	r3, [r3]
 214 0038 0133     		adds	r3, r3, #1
 215 003a 074A     		ldr	r2, .L12+4
 216 003c 1360     		str	r3, [r2]
 118:main.c        ****         if (i==COUNT_OF_SAMPLES) {
 217              		.loc 1 118 0
 218 003e 064B     		ldr	r3, .L12+4
 219 0040 1B68     		ldr	r3, [r3]
ARM GAS  C:\Users\rcaravac\AppData\Local\Temp\ccEllc3u.s 			page 7


 220 0042 B3F5FA6F 		cmp	r3, #2000
 221 0046 02D1     		bne	.L11
 119:main.c        ****             i = 0;
 222              		.loc 1 119 0
 223 0048 034B     		ldr	r3, .L12+4
 224 004a 0022     		movs	r2, #0
 225 004c 1A60     		str	r2, [r3]
 226              	.L11:
 120:main.c        ****         }
 121:main.c        ****     }
 122:main.c        **** 
 123:main.c        **** }
 227              		.loc 1 123 0
 228 004e 00BF     		nop
 229 0050 80BD     		pop	{r7, pc}
 230              	.L13:
 231 0052 00BF     		.align	2
 232              	.L12:
 233 0054 00000000 		.word	output
 234 0058 00000000 		.word	i
 235 005c 00000000 		.word	Buffer_sample_to_transmit
 236              		.cfi_endproc
 237              	.LFE65:
 238              		.size	filterVDAC, .-filterVDAC
 239              		.section	.rodata
 240 0012 0000     		.align	2
 241              	.LC2:
 242 0014 434F4D20 		.ascii	"COM Port Open\000"
 242      506F7274 
 242      204F7065 
 242      6E00
 243              		.section	.text.main,"ax",%progbits
 244              		.align	2
 245              		.global	main
 246              		.thumb
 247              		.thumb_func
 248              		.type	main, %function
 249              	main:
 250              	.LFB66:
 124:main.c        **** 
 125:main.c        **** 
 126:main.c        **** /*******************************************************************************
 127:main.c        **** * Function Name: main
 128:main.c        **** ********************************************************************************
 129:main.c        **** *
 130:main.c        **** * Summary:
 131:main.c        **** *  Main function performs following functions:
 132:main.c        **** *   1: Enables global interrupts
 133:main.c        **** *   2: Start all components on the schematic
 134:main.c        **** *   3: Calls a function to configure DMA
 135:main.c        **** 
 136:main.c        **** * Parameters:
 137:main.c        **** *  None.
 138:main.c        **** *
 139:main.c        **** * Return:
 140:main.c        **** *  None.
 141:main.c        **** *
ARM GAS  C:\Users\rcaravac\AppData\Local\Temp\ccEllc3u.s 			page 8


 142:main.c        **** *******************************************************************************/
 143:main.c        **** int main()
 144:main.c        **** {
 251              		.loc 1 144 0
 252              		.cfi_startproc
 253              		@ args = 0, pretend = 0, frame = 8
 254              		@ frame_needed = 1, uses_anonymous_args = 0
 255 0000 80B5     		push	{r7, lr}
 256              		.cfi_def_cfa_offset 8
 257              		.cfi_offset 7, -8
 258              		.cfi_offset 14, -4
 259 0002 82B0     		sub	sp, sp, #8
 260              		.cfi_def_cfa_offset 16
 261 0004 00AF     		add	r7, sp, #0
 262              		.cfi_def_cfa_register 7
 145:main.c        ****     
 146:main.c        ****     /* Variable to store UART received character */
 147:main.c        ****     uint8 Ch;
 148:main.c        **** 
 149:main.c        ****     /* Start all components used on schematic */
 150:main.c        ****     ADC_DelSig_IRQ_Start();
 263              		.loc 1 150 0
 264 0006 FFF7FEFF 		bl	ADC_DelSig_IRQ_Start
 151:main.c        ****     isr_StartEx(filterVDAC);
 265              		.loc 1 151 0
 266 000a 2348     		ldr	r0, .L23
 267 000c FFF7FEFF 		bl	isr_StartEx
 152:main.c        ****     isrTimer_StartEx(Transmit);
 268              		.loc 1 152 0
 269 0010 2248     		ldr	r0, .L23+4
 270 0012 FFF7FEFF 		bl	isrTimer_StartEx
 153:main.c        ****     ADC_DelSig_Start();
 271              		.loc 1 153 0
 272 0016 FFF7FEFF 		bl	ADC_DelSig_Start
 154:main.c        ****     ADC_DelSig_StartConvert();
 273              		.loc 1 154 0
 274 001a FFF7FEFF 		bl	ADC_DelSig_StartConvert
 155:main.c        ****     VDAC8_Start();
 275              		.loc 1 155 0
 276 001e FFF7FEFF 		bl	VDAC8_Start
 156:main.c        ****     WaveDAC8_Start();
 277              		.loc 1 156 0
 278 0022 FFF7FEFF 		bl	WaveDAC8_Start
 157:main.c        ****     Filter_Start();
 279              		.loc 1 157 0
 280 0026 FFF7FEFF 		bl	Filter_Start
 158:main.c        ****     Timer_Start();
 281              		.loc 1 158 0
 282 002a FFF7FEFF 		bl	Timer_Start
 159:main.c        ****     UART_1_Start();
 283              		.loc 1 159 0
 284 002e FFF7FEFF 		bl	UART_1_Start
 160:main.c        **** 
 161:main.c        ****     /* Initialize Variables */
 162:main.c        ****     ContinuouslySendData = FALSE;
 285              		.loc 1 162 0
 286 0032 1B4B     		ldr	r3, .L23+8
ARM GAS  C:\Users\rcaravac\AppData\Local\Temp\ccEllc3u.s 			page 9


 287 0034 0022     		movs	r2, #0
 288 0036 1A70     		strb	r2, [r3]
 163:main.c        ****     SendSingleByte = FALSE;
 289              		.loc 1 163 0
 290 0038 1A4B     		ldr	r3, .L23+12
 291 003a 0022     		movs	r2, #0
 292 003c 1A70     		strb	r2, [r3]
 164:main.c        ****     SendEmulatedData = FALSE;
 293              		.loc 1 164 0
 294 003e 1A4B     		ldr	r3, .L23+16
 295 0040 0022     		movs	r2, #0
 296 0042 1A70     		strb	r2, [r3]
 165:main.c        ****     EmulatedData = 0;
 297              		.loc 1 165 0
 298 0044 194B     		ldr	r3, .L23+20
 299 0046 0022     		movs	r2, #0
 300 0048 1A70     		strb	r2, [r3]
 166:main.c        ****     
 167:main.c        ****     /* Send message to verify COM port is connected properly */
 168:main.c        ****     UART_1_PutString("COM Port Open");
 301              		.loc 1 168 0
 302 004a 1948     		ldr	r0, .L23+24
 303 004c FFF7FEFF 		bl	UART_1_PutString
 169:main.c        ****     
 170:main.c        ****     /* User-implemented function to set-up DMA */
 171:main.c        ****     DMA_Config();
 304              		.loc 1 171 0
 305 0050 FFF7FEFF 		bl	DMA_Config
 172:main.c        **** 
 173:main.c        ****     /* Enable Global Interrupts */
 174:main.c        ****     CYGlobalIntEnable;
 306              		.loc 1 174 0
 307              		.syntax unified
 308              	@ 174 "main.c" 1
 309 0054 62B6     		CPSIE   i
 310              	@ 0 "" 2
 311              		.thumb
 312              		.syntax unified
 313              	.L21:
 175:main.c        **** 
 176:main.c        **** 
 177:main.c        ****     for(;;)
 178:main.c        ****     {
 179:main.c        ****         /* Non-blocking call to get the latest data recieved  */
 180:main.c        ****         Ch = UART_1_GetChar();
 314              		.loc 1 180 0
 315 0056 FFF7FEFF 		bl	UART_1_GetChar
 316 005a 0346     		mov	r3, r0
 317 005c FB71     		strb	r3, [r7, #7]
 181:main.c        ****         
 182:main.c        ****         /* Set flags based on UART command */
 183:main.c        ****         switch(Ch)
 318              		.loc 1 183 0
 319 005e FB79     		ldrb	r3, [r7, #7]	@ zero_extendqisi2
 320 0060 532B     		cmp	r3, #83
 321 0062 0FD0     		beq	.L16
 322 0064 532B     		cmp	r3, #83
ARM GAS  C:\Users\rcaravac\AppData\Local\Temp\ccEllc3u.s 			page 10


 323 0066 04DC     		bgt	.L17
 324 0068 002B     		cmp	r3, #0
 325 006a 12D0     		beq	.L22
 326 006c 432B     		cmp	r3, #67
 327 006e 05D0     		beq	.L19
 184:main.c        ****         {
 185:main.c        ****             case 0:
 186:main.c        ****                 /* No new data was recieved */
 187:main.c        ****                 break;
 188:main.c        ****             case 'C':
 189:main.c        ****             case 'c':
 190:main.c        ****                 sample_counter = 0;
 191:main.c        ****                 
 192:main.c        ****                 break;
 193:main.c        ****             case 'S':
 194:main.c        ****             case 's':
 195:main.c        ****                 sample_counter = 0;
 196:main.c        ****                 ContinuouslySendData = TRUE;                
 197:main.c        ****                 break;
 198:main.c        ****             
 199:main.c        ****             default:
 200:main.c        ****                 /* Place error handling code here */
 201:main.c        ****                 break;    
 328              		.loc 1 201 0
 329 0070 10E0     		b	.L20
 330              	.L17:
 183:main.c        ****         {
 331              		.loc 1 183 0
 332 0072 632B     		cmp	r3, #99
 333 0074 02D0     		beq	.L19
 334 0076 732B     		cmp	r3, #115
 335 0078 04D0     		beq	.L16
 336              		.loc 1 201 0
 337 007a 0BE0     		b	.L20
 338              	.L19:
 190:main.c        ****                 
 339              		.loc 1 190 0
 340 007c 0D4B     		ldr	r3, .L23+28
 341 007e 0022     		movs	r2, #0
 342 0080 1A60     		str	r2, [r3]
 192:main.c        ****             case 'S':
 343              		.loc 1 192 0
 344 0082 07E0     		b	.L20
 345              	.L16:
 195:main.c        ****                 ContinuouslySendData = TRUE;                
 346              		.loc 1 195 0
 347 0084 0B4B     		ldr	r3, .L23+28
 348 0086 0022     		movs	r2, #0
 349 0088 1A60     		str	r2, [r3]
 196:main.c        ****                 break;
 350              		.loc 1 196 0
 351 008a 054B     		ldr	r3, .L23+8
 352 008c 0122     		movs	r2, #1
 353 008e 1A70     		strb	r2, [r3]
 197:main.c        ****             
 354              		.loc 1 197 0
 355 0090 00E0     		b	.L20
ARM GAS  C:\Users\rcaravac\AppData\Local\Temp\ccEllc3u.s 			page 11


 356              	.L22:
 187:main.c        ****             case 'C':
 357              		.loc 1 187 0
 358 0092 00BF     		nop
 359              	.L20:
 202:main.c        ****         }
 203:main.c        ****         
 204:main.c        ****     }
 360              		.loc 1 204 0 discriminator 1
 361 0094 DFE7     		b	.L21
 362              	.L24:
 363 0096 00BF     		.align	2
 364              	.L23:
 365 0098 00000000 		.word	filterVDAC
 366 009c 00000000 		.word	Transmit
 367 00a0 00000000 		.word	ContinuouslySendData
 368 00a4 00000000 		.word	SendSingleByte
 369 00a8 00000000 		.word	SendEmulatedData
 370 00ac 00000000 		.word	EmulatedData
 371 00b0 14000000 		.word	.LC2
 372 00b4 00000000 		.word	sample_counter
 373              		.cfi_endproc
 374              	.LFE66:
 375              		.size	main, .-main
 376              		.section	.text.DMA_Config,"ax",%progbits
 377              		.align	2
 378              		.global	DMA_Config
 379              		.thumb
 380              		.thumb_func
 381              		.type	DMA_Config, %function
 382              	DMA_Config:
 383              	.LFB67:
 205:main.c        **** } /* End of main */
 206:main.c        **** 
 207:main.c        **** 
 208:main.c        **** /*******************************************************************************
 209:main.c        **** * Function Name: DMA_Config
 210:main.c        **** ********************************************************************************
 211:main.c        **** *
 212:main.c        **** * Summary:
 213:main.c        **** *  Initializes and sets up DMA for use (generated by DMA Wizard)
 214:main.c        **** *
 215:main.c        **** * Parameters:
 216:main.c        **** *  None.
 217:main.c        **** *
 218:main.c        **** * Return:
 219:main.c        **** *  None.
 220:main.c        **** *
 221:main.c        **** *******************************************************************************/
 222:main.c        **** void DMA_Config(void)
 223:main.c        **** {
 384              		.loc 1 223 0
 385              		.cfi_startproc
 386              		@ args = 0, pretend = 0, frame = 8
 387              		@ frame_needed = 1, uses_anonymous_args = 0
 388 0000 80B5     		push	{r7, lr}
 389              		.cfi_def_cfa_offset 8
ARM GAS  C:\Users\rcaravac\AppData\Local\Temp\ccEllc3u.s 			page 12


 390              		.cfi_offset 7, -8
 391              		.cfi_offset 14, -4
 392 0002 82B0     		sub	sp, sp, #8
 393              		.cfi_def_cfa_offset 16
 394 0004 00AF     		add	r7, sp, #0
 395              		.cfi_def_cfa_register 7
 224:main.c        ****     /* Declare variable to hold the handle for DMA channel */
 225:main.c        ****     uint8 channelHandle;
 226:main.c        **** 
 227:main.c        ****     /* Declare DMA Transaction Descriptor for memory transfer into
 228:main.c        ****      * Filter Channel.
 229:main.c        ****      */
 230:main.c        ****     uint8 tdChanA;
 231:main.c        **** 
 232:main.c        ****     /* Configure the DMA to Transfer the data in 1 burst with individual trigger
 233:main.c        ****      * for each burst.
 234:main.c        ****      */
 235:main.c        ****     channelHandle = DMA_DmaInitialize(BYTES_PER_BURST, REQUEST_PER_BURST,
 396              		.loc 1 235 0
 397 0006 4FF48043 		mov	r3, #16384
 398 000a 4FF48042 		mov	r2, #16384
 399 000e 0121     		movs	r1, #1
 400 0010 0120     		movs	r0, #1
 401 0012 FFF7FEFF 		bl	DMA_DmaInitialize
 402 0016 0346     		mov	r3, r0
 403 0018 FB71     		strb	r3, [r7, #7]
 236:main.c        ****                                         HI16(UPPER_SRC_ADDRESS), HI16(UPPER_DEST_ADDRESS));
 237:main.c        **** 
 238:main.c        ****     /* This function allocates a TD for use with an initialized DMA channel */
 239:main.c        ****     tdChanA = CyDmaTdAllocate();
 404              		.loc 1 239 0
 405 001a FFF7FEFF 		bl	CyDmaTdAllocate
 406 001e 0346     		mov	r3, r0
 407 0020 BB71     		strb	r3, [r7, #6]
 240:main.c        **** 
 241:main.c        ****     /* Configure the tdChanA to transfer 1 byte with no next TD */
 242:main.c        ****     CyDmaTdSetConfiguration(tdChanA, 1u, DMA_INVALID_TD, 0u);
 408              		.loc 1 242 0
 409 0022 B879     		ldrb	r0, [r7, #6]	@ zero_extendqisi2
 410 0024 0023     		movs	r3, #0
 411 0026 FF22     		movs	r2, #255
 412 0028 0121     		movs	r1, #1
 413 002a FFF7FEFF 		bl	CyDmaTdSetConfiguration
 243:main.c        **** 
 244:main.c        ****     /* Set the source address as ADC_DelSig and the destination as
 245:main.c        ****      * Filter Channel A.
 246:main.c        ****      */
 247:main.c        ****     CyDmaTdSetAddress(tdChanA, LO16((uint32)ADC_DelSig_DEC_SAMP_PTR), LO16((uint32)Filter_STAGEAH_P
 414              		.loc 1 247 0
 415 002e BB79     		ldrb	r3, [r7, #6]	@ zero_extendqisi2
 416 0030 4CF2A272 		movw	r2, #51106
 417 0034 44F61061 		movw	r1, #19984
 418 0038 1846     		mov	r0, r3
 419 003a FFF7FEFF 		bl	CyDmaTdSetAddress
 248:main.c        **** 
 249:main.c        ****     /* Set tdChanA to be the initial TD associated with channelHandle */
 250:main.c        ****     CyDmaChSetInitialTd(channelHandle, tdChanA);
ARM GAS  C:\Users\rcaravac\AppData\Local\Temp\ccEllc3u.s 			page 13


 420              		.loc 1 250 0
 421 003e BA79     		ldrb	r2, [r7, #6]	@ zero_extendqisi2
 422 0040 FB79     		ldrb	r3, [r7, #7]	@ zero_extendqisi2
 423 0042 1146     		mov	r1, r2
 424 0044 1846     		mov	r0, r3
 425 0046 FFF7FEFF 		bl	CyDmaChSetInitialTd
 251:main.c        **** 
 252:main.c        ****     /* Enable the DMA channel represented by channelHandle and preserve the TD */
 253:main.c        ****     CyDmaChEnable(channelHandle, 1u);
 426              		.loc 1 253 0
 427 004a FB79     		ldrb	r3, [r7, #7]	@ zero_extendqisi2
 428 004c 0121     		movs	r1, #1
 429 004e 1846     		mov	r0, r3
 430 0050 FFF7FEFF 		bl	CyDmaChEnable
 254:main.c        **** }
 431              		.loc 1 254 0
 432 0054 00BF     		nop
 433 0056 0837     		adds	r7, r7, #8
 434              		.cfi_def_cfa_offset 8
 435 0058 BD46     		mov	sp, r7
 436              		.cfi_def_cfa_register 13
 437              		@ sp needed
 438 005a 80BD     		pop	{r7, pc}
 439              		.cfi_endproc
 440              	.LFE67:
 441              		.size	DMA_Config, .-DMA_Config
 442              		.global	__aeabi_i2d
 443              		.global	__aeabi_ddiv
 444              		.global	__aeabi_d2f
 445              		.global	__aeabi_i2f
 446              		.global	__aeabi_fmul
 447              		.global	__aeabi_fdiv
 448              		.global	__aeabi_f2d
 449              		.global	__aeabi_dadd
 450              		.global	__aeabi_d2iz
 451              		.global	__aeabi_dmul
 452              		.global	__aeabi_fadd
 453              		.global	__aeabi_fsub
 454              		.section	.text.goertzel_mag,"ax",%progbits
 455              		.align	2
 456              		.global	goertzel_mag
 457              		.thumb
 458              		.thumb_func
 459              		.type	goertzel_mag, %function
 460              	goertzel_mag:
 461              	.LFB68:
 255:main.c        **** 
 256:main.c        **** 
 257:main.c        **** float goertzel_mag(int numSamples,int TARGET_FREQUENCY,int SAMPLING_RATE, float data[])
 258:main.c        **** {
 462              		.loc 1 258 0
 463              		.cfi_startproc
 464              		@ args = 0, pretend = 0, frame = 72
 465              		@ frame_needed = 1, uses_anonymous_args = 0
 466 0000 B0B5     		push	{r4, r5, r7, lr}
 467              		.cfi_def_cfa_offset 16
 468              		.cfi_offset 4, -16
ARM GAS  C:\Users\rcaravac\AppData\Local\Temp\ccEllc3u.s 			page 14


 469              		.cfi_offset 5, -12
 470              		.cfi_offset 7, -8
 471              		.cfi_offset 14, -4
 472 0002 92B0     		sub	sp, sp, #72
 473              		.cfi_def_cfa_offset 88
 474 0004 00AF     		add	r7, sp, #0
 475              		.cfi_def_cfa_register 7
 476 0006 F860     		str	r0, [r7, #12]
 477 0008 B960     		str	r1, [r7, #8]
 478 000a 7A60     		str	r2, [r7, #4]
 479 000c 3B60     		str	r3, [r7]
 259:main.c        ****     int     k,i;
 260:main.c        ****     float   floatnumSamples;
 261:main.c        ****     float   omega,sine,cosine,coeff,q0,q1,q2,magnitude,real,imag;
 262:main.c        **** 
 263:main.c        ****     float   scalingFactor = numSamples / 2.0;
 480              		.loc 1 263 0
 481 000e F868     		ldr	r0, [r7, #12]
 482 0010 FFF7FEFF 		bl	__aeabi_i2d
 483 0014 4FF00002 		mov	r2, #0
 484 0018 4FF08043 		mov	r3, #1073741824
 485 001c FFF7FEFF 		bl	__aeabi_ddiv
 486 0020 0346     		mov	r3, r0
 487 0022 0C46     		mov	r4, r1
 488 0024 1846     		mov	r0, r3
 489 0026 2146     		mov	r1, r4
 490 0028 FFF7FEFF 		bl	__aeabi_d2f
 491 002c 0346     		mov	r3, r0
 492 002e BB63     		str	r3, [r7, #56]	@ float
 264:main.c        **** 
 265:main.c        ****     floatnumSamples = (float) numSamples;
 493              		.loc 1 265 0
 494 0030 F868     		ldr	r0, [r7, #12]
 495 0032 FFF7FEFF 		bl	__aeabi_i2f
 496 0036 0346     		mov	r3, r0
 497 0038 7B63     		str	r3, [r7, #52]	@ float
 266:main.c        ****     k = (int) (0.5 + ((floatnumSamples * TARGET_FREQUENCY) / SAMPLING_RATE));
 498              		.loc 1 266 0
 499 003a B868     		ldr	r0, [r7, #8]
 500 003c FFF7FEFF 		bl	__aeabi_i2f
 501 0040 0346     		mov	r3, r0
 502 0042 796B     		ldr	r1, [r7, #52]	@ float
 503 0044 1846     		mov	r0, r3
 504 0046 FFF7FEFF 		bl	__aeabi_fmul
 505 004a 0346     		mov	r3, r0
 506 004c 1C46     		mov	r4, r3
 507 004e 7868     		ldr	r0, [r7, #4]
 508 0050 FFF7FEFF 		bl	__aeabi_i2f
 509 0054 0346     		mov	r3, r0
 510 0056 1946     		mov	r1, r3
 511 0058 2046     		mov	r0, r4
 512 005a FFF7FEFF 		bl	__aeabi_fdiv
 513 005e 0346     		mov	r3, r0
 514 0060 1846     		mov	r0, r3
 515 0062 FFF7FEFF 		bl	__aeabi_f2d
 516 0066 4FF00002 		mov	r2, #0
 517 006a 5D4B     		ldr	r3, .L30+8
ARM GAS  C:\Users\rcaravac\AppData\Local\Temp\ccEllc3u.s 			page 15


 518 006c FFF7FEFF 		bl	__aeabi_dadd
 519 0070 0346     		mov	r3, r0
 520 0072 0C46     		mov	r4, r1
 521 0074 1846     		mov	r0, r3
 522 0076 2146     		mov	r1, r4
 523 0078 FFF7FEFF 		bl	__aeabi_d2iz
 524 007c 0346     		mov	r3, r0
 525 007e 3B63     		str	r3, [r7, #48]
 267:main.c        ****     omega = (2.0 * 3.1416 * k) / floatnumSamples;
 526              		.loc 1 267 0
 527 0080 386B     		ldr	r0, [r7, #48]
 528 0082 FFF7FEFF 		bl	__aeabi_i2d
 529 0086 54A3     		adr	r3, .L30
 530 0088 D3E90023 		ldrd	r2, [r3]
 531 008c FFF7FEFF 		bl	__aeabi_dmul
 532 0090 0346     		mov	r3, r0
 533 0092 0C46     		mov	r4, r1
 534 0094 2546     		mov	r5, r4
 535 0096 1C46     		mov	r4, r3
 536 0098 786B     		ldr	r0, [r7, #52]	@ float
 537 009a FFF7FEFF 		bl	__aeabi_f2d
 538 009e 0246     		mov	r2, r0
 539 00a0 0B46     		mov	r3, r1
 540 00a2 2046     		mov	r0, r4
 541 00a4 2946     		mov	r1, r5
 542 00a6 FFF7FEFF 		bl	__aeabi_ddiv
 543 00aa 0346     		mov	r3, r0
 544 00ac 0C46     		mov	r4, r1
 545 00ae 1846     		mov	r0, r3
 546 00b0 2146     		mov	r1, r4
 547 00b2 FFF7FEFF 		bl	__aeabi_d2f
 548 00b6 0346     		mov	r3, r0
 549 00b8 FB62     		str	r3, [r7, #44]	@ float
 268:main.c        ****     
 269:main.c        ****     sine = sin(omega);
 550              		.loc 1 269 0
 551 00ba F86A     		ldr	r0, [r7, #44]	@ float
 552 00bc FFF7FEFF 		bl	__aeabi_f2d
 553 00c0 0346     		mov	r3, r0
 554 00c2 0C46     		mov	r4, r1
 555 00c4 1846     		mov	r0, r3
 556 00c6 2146     		mov	r1, r4
 557 00c8 FFF7FEFF 		bl	sin
 558 00cc 0346     		mov	r3, r0
 559 00ce 0C46     		mov	r4, r1
 560 00d0 1846     		mov	r0, r3
 561 00d2 2146     		mov	r1, r4
 562 00d4 FFF7FEFF 		bl	__aeabi_d2f
 563 00d8 0346     		mov	r3, r0
 564 00da BB62     		str	r3, [r7, #40]	@ float
 270:main.c        ****     cosine = cos(omega);
 565              		.loc 1 270 0
 566 00dc F86A     		ldr	r0, [r7, #44]	@ float
 567 00de FFF7FEFF 		bl	__aeabi_f2d
 568 00e2 0346     		mov	r3, r0
 569 00e4 0C46     		mov	r4, r1
 570 00e6 1846     		mov	r0, r3
ARM GAS  C:\Users\rcaravac\AppData\Local\Temp\ccEllc3u.s 			page 16


 571 00e8 2146     		mov	r1, r4
 572 00ea FFF7FEFF 		bl	cos
 573 00ee 0346     		mov	r3, r0
 574 00f0 0C46     		mov	r4, r1
 575 00f2 1846     		mov	r0, r3
 576 00f4 2146     		mov	r1, r4
 577 00f6 FFF7FEFF 		bl	__aeabi_d2f
 578 00fa 0346     		mov	r3, r0
 579 00fc 7B62     		str	r3, [r7, #36]	@ float
 271:main.c        ****     coeff = 2.0 * cosine;
 580              		.loc 1 271 0
 581 00fe 7B6A     		ldr	r3, [r7, #36]	@ float
 582 0100 1946     		mov	r1, r3
 583 0102 1846     		mov	r0, r3
 584 0104 FFF7FEFF 		bl	__aeabi_fadd
 585 0108 0346     		mov	r3, r0
 586 010a 3B62     		str	r3, [r7, #32]	@ float
 272:main.c        ****     q0=0;
 587              		.loc 1 272 0
 588 010c 4FF00003 		mov	r3, #0
 589 0110 3B64     		str	r3, [r7, #64]	@ float
 273:main.c        ****     q1=0;
 590              		.loc 1 273 0
 591 0112 4FF00003 		mov	r3, #0
 592 0116 FB63     		str	r3, [r7, #60]	@ float
 274:main.c        ****     q2=0;
 593              		.loc 1 274 0
 594 0118 4FF00003 		mov	r3, #0
 595 011c FB61     		str	r3, [r7, #28]	@ float
 275:main.c        **** 
 276:main.c        ****     for(i=0; i<numSamples; i++)
 596              		.loc 1 276 0
 597 011e 0023     		movs	r3, #0
 598 0120 7B64     		str	r3, [r7, #68]
 599 0122 1BE0     		b	.L27
 600              	.L28:
 277:main.c        ****     {
 278:main.c        ****         q2 = q1;
 601              		.loc 1 278 0 discriminator 3
 602 0124 FB6B     		ldr	r3, [r7, #60]	@ float
 603 0126 FB61     		str	r3, [r7, #28]	@ float
 279:main.c        ****         q1 = q0;
 604              		.loc 1 279 0 discriminator 3
 605 0128 3B6C     		ldr	r3, [r7, #64]	@ float
 606 012a FB63     		str	r3, [r7, #60]	@ float
 280:main.c        ****         q0 = coeff * q1 - q2 + data[i];
 607              		.loc 1 280 0 discriminator 3
 608 012c F96B     		ldr	r1, [r7, #60]	@ float
 609 012e 386A     		ldr	r0, [r7, #32]	@ float
 610 0130 FFF7FEFF 		bl	__aeabi_fmul
 611 0134 0346     		mov	r3, r0
 612 0136 F969     		ldr	r1, [r7, #28]	@ float
 613 0138 1846     		mov	r0, r3
 614 013a FFF7FEFF 		bl	__aeabi_fsub
 615 013e 0346     		mov	r3, r0
 616 0140 1846     		mov	r0, r3
 617 0142 7B6C     		ldr	r3, [r7, #68]
ARM GAS  C:\Users\rcaravac\AppData\Local\Temp\ccEllc3u.s 			page 17


 618 0144 9B00     		lsls	r3, r3, #2
 619 0146 3A68     		ldr	r2, [r7]
 620 0148 1344     		add	r3, r3, r2
 621 014a 1B68     		ldr	r3, [r3]	@ float
 622 014c 1946     		mov	r1, r3
 623 014e FFF7FEFF 		bl	__aeabi_fadd
 624 0152 0346     		mov	r3, r0
 625 0154 3B64     		str	r3, [r7, #64]	@ float
 276:main.c        ****     {
 626              		.loc 1 276 0 discriminator 3
 627 0156 7B6C     		ldr	r3, [r7, #68]
 628 0158 0133     		adds	r3, r3, #1
 629 015a 7B64     		str	r3, [r7, #68]
 630              	.L27:
 276:main.c        ****     {
 631              		.loc 1 276 0 is_stmt 0 discriminator 1
 632 015c 7A6C     		ldr	r2, [r7, #68]
 633 015e FB68     		ldr	r3, [r7, #12]
 634 0160 9A42     		cmp	r2, r3
 635 0162 DFDB     		blt	.L28
 281:main.c        ****     }
 282:main.c        **** 
 283:main.c        ****     // calculate the real and imaginary results
 284:main.c        ****     // scaling appropriately
 285:main.c        ****     real = (q0 - q1 * cosine) / scalingFactor;
 636              		.loc 1 285 0 is_stmt 1
 637 0164 796A     		ldr	r1, [r7, #36]	@ float
 638 0166 F86B     		ldr	r0, [r7, #60]	@ float
 639 0168 FFF7FEFF 		bl	__aeabi_fmul
 640 016c 0346     		mov	r3, r0
 641 016e 1946     		mov	r1, r3
 642 0170 386C     		ldr	r0, [r7, #64]	@ float
 643 0172 FFF7FEFF 		bl	__aeabi_fsub
 644 0176 0346     		mov	r3, r0
 645 0178 B96B     		ldr	r1, [r7, #56]	@ float
 646 017a 1846     		mov	r0, r3
 647 017c FFF7FEFF 		bl	__aeabi_fdiv
 648 0180 0346     		mov	r3, r0
 649 0182 BB61     		str	r3, [r7, #24]	@ float
 286:main.c        ****     imag = (-q1 * sine) / scalingFactor;
 650              		.loc 1 286 0
 651 0184 FB6B     		ldr	r3, [r7, #60]
 652 0186 83F00043 		eor	r3, r3, #-2147483648
 653 018a B96A     		ldr	r1, [r7, #40]	@ float
 654 018c 1846     		mov	r0, r3
 655 018e FFF7FEFF 		bl	__aeabi_fmul
 656 0192 0346     		mov	r3, r0
 657 0194 B96B     		ldr	r1, [r7, #56]	@ float
 658 0196 1846     		mov	r0, r3
 659 0198 FFF7FEFF 		bl	__aeabi_fdiv
 660 019c 0346     		mov	r3, r0
 661 019e 7B61     		str	r3, [r7, #20]	@ float
 287:main.c        **** 
 288:main.c        ****     magnitude = sqrtf(real*real + imag*imag);
 662              		.loc 1 288 0
 663 01a0 B969     		ldr	r1, [r7, #24]	@ float
 664 01a2 B869     		ldr	r0, [r7, #24]	@ float
ARM GAS  C:\Users\rcaravac\AppData\Local\Temp\ccEllc3u.s 			page 18


 665 01a4 FFF7FEFF 		bl	__aeabi_fmul
 666 01a8 0346     		mov	r3, r0
 667 01aa 1C46     		mov	r4, r3
 668 01ac 7969     		ldr	r1, [r7, #20]	@ float
 669 01ae 7869     		ldr	r0, [r7, #20]	@ float
 670 01b0 FFF7FEFF 		bl	__aeabi_fmul
 671 01b4 0346     		mov	r3, r0
 672 01b6 1946     		mov	r1, r3
 673 01b8 2046     		mov	r0, r4
 674 01ba FFF7FEFF 		bl	__aeabi_fadd
 675 01be 0346     		mov	r3, r0
 676 01c0 1846     		mov	r0, r3
 677 01c2 FFF7FEFF 		bl	sqrtf
 678 01c6 3861     		str	r0, [r7, #16]	@ float
 289:main.c        ****     
 290:main.c        **** 
 291:main.c        ****     return magnitude;
 679              		.loc 1 291 0
 680 01c8 3B69     		ldr	r3, [r7, #16]	@ float
 292:main.c        **** }
 681              		.loc 1 292 0
 682 01ca 1846     		mov	r0, r3
 683 01cc 4837     		adds	r7, r7, #72
 684              		.cfi_def_cfa_offset 16
 685 01ce BD46     		mov	sp, r7
 686              		.cfi_def_cfa_register 13
 687              		@ sp needed
 688 01d0 B0BD     		pop	{r4, r5, r7, pc}
 689              	.L31:
 690 01d2 00BFAFF3 		.align	3
 690      0080
 691              	.L30:
 692 01d8 A7E8482E 		.word	776530087
 693 01dc FF211940 		.word	1075388927
 694 01e0 0000E03F 		.word	1071644672
 695              		.cfi_endproc
 696              	.LFE68:
 697              		.size	goertzel_mag, .-goertzel_mag
 698              		.text
 699              	.Letext0:
 700              		.file 2 "c:\\program files (x86)\\cypress\\psoc creator\\4.2\\psoc creator\\import\\gnu\\arm\\5.4.
 701              		.file 3 "c:\\program files (x86)\\cypress\\psoc creator\\4.2\\psoc creator\\import\\gnu\\arm\\5.4.
 702              		.file 4 "Generated_Source\\PSoC5/cytypes.h"
 703              		.file 5 "Generated_Source\\PSoC5/core_cm3.h"